
bomb:     file format elf64-x86-64


Disassembly of section .init:

0000000000401000 <_init>:
  401000:	f3 0f 1e fa          	endbr64 
  401004:	48 83 ec 08          	sub    $0x8,%rsp
  401008:	48 8b 05 e9 3f 00 00 	mov    0x3fe9(%rip),%rax        # 404ff8 <__gmon_start__>
  40100f:	48 85 c0             	test   %rax,%rax
  401012:	74 02                	je     401016 <_init+0x16>
  401014:	ff d0                	callq  *%rax
  401016:	48 83 c4 08          	add    $0x8,%rsp
  40101a:	c3                   	retq   

Disassembly of section .plt:

0000000000401020 <.plt>:
  401020:	ff 35 e2 3f 00 00    	pushq  0x3fe2(%rip)        # 405008 <_GLOBAL_OFFSET_TABLE_+0x8>
  401026:	ff 25 e4 3f 00 00    	jmpq   *0x3fe4(%rip)        # 405010 <_GLOBAL_OFFSET_TABLE_+0x10>
  40102c:	0f 1f 40 00          	nopl   0x0(%rax)

0000000000401030 <getenv@plt>:
  401030:	ff 25 e2 3f 00 00    	jmpq   *0x3fe2(%rip)        # 405018 <getenv@GLIBC_2.2.5>
  401036:	68 00 00 00 00       	pushq  $0x0
  40103b:	e9 e0 ff ff ff       	jmpq   401020 <.plt>

0000000000401040 <__errno_location@plt>:
  401040:	ff 25 da 3f 00 00    	jmpq   *0x3fda(%rip)        # 405020 <__errno_location@GLIBC_2.2.5>
  401046:	68 01 00 00 00       	pushq  $0x1
  40104b:	e9 d0 ff ff ff       	jmpq   401020 <.plt>

0000000000401050 <strcpy@plt>:
  401050:	ff 25 d2 3f 00 00    	jmpq   *0x3fd2(%rip)        # 405028 <strcpy@GLIBC_2.2.5>
  401056:	68 02 00 00 00       	pushq  $0x2
  40105b:	e9 c0 ff ff ff       	jmpq   401020 <.plt>

0000000000401060 <puts@plt>:
  401060:	ff 25 ca 3f 00 00    	jmpq   *0x3fca(%rip)        # 405030 <puts@GLIBC_2.2.5>
  401066:	68 03 00 00 00       	pushq  $0x3
  40106b:	e9 b0 ff ff ff       	jmpq   401020 <.plt>

0000000000401070 <write@plt>:
  401070:	ff 25 c2 3f 00 00    	jmpq   *0x3fc2(%rip)        # 405038 <write@GLIBC_2.2.5>
  401076:	68 04 00 00 00       	pushq  $0x4
  40107b:	e9 a0 ff ff ff       	jmpq   401020 <.plt>

0000000000401080 <alarm@plt>:
  401080:	ff 25 ba 3f 00 00    	jmpq   *0x3fba(%rip)        # 405040 <alarm@GLIBC_2.2.5>
  401086:	68 05 00 00 00       	pushq  $0x5
  40108b:	e9 90 ff ff ff       	jmpq   401020 <.plt>

0000000000401090 <close@plt>:
  401090:	ff 25 b2 3f 00 00    	jmpq   *0x3fb2(%rip)        # 405048 <close@GLIBC_2.2.5>
  401096:	68 06 00 00 00       	pushq  $0x6
  40109b:	e9 80 ff ff ff       	jmpq   401020 <.plt>

00000000004010a0 <read@plt>:
  4010a0:	ff 25 aa 3f 00 00    	jmpq   *0x3faa(%rip)        # 405050 <read@GLIBC_2.2.5>
  4010a6:	68 07 00 00 00       	pushq  $0x7
  4010ab:	e9 70 ff ff ff       	jmpq   401020 <.plt>

00000000004010b0 <fgets@plt>:
  4010b0:	ff 25 a2 3f 00 00    	jmpq   *0x3fa2(%rip)        # 405058 <fgets@GLIBC_2.2.5>
  4010b6:	68 08 00 00 00       	pushq  $0x8
  4010bb:	e9 60 ff ff ff       	jmpq   401020 <.plt>

00000000004010c0 <signal@plt>:
  4010c0:	ff 25 9a 3f 00 00    	jmpq   *0x3f9a(%rip)        # 405060 <signal@GLIBC_2.2.5>
  4010c6:	68 09 00 00 00       	pushq  $0x9
  4010cb:	e9 50 ff ff ff       	jmpq   401020 <.plt>

00000000004010d0 <gethostbyname@plt>:
  4010d0:	ff 25 92 3f 00 00    	jmpq   *0x3f92(%rip)        # 405068 <gethostbyname@GLIBC_2.2.5>
  4010d6:	68 0a 00 00 00       	pushq  $0xa
  4010db:	e9 40 ff ff ff       	jmpq   401020 <.plt>

00000000004010e0 <__memmove_chk@plt>:
  4010e0:	ff 25 8a 3f 00 00    	jmpq   *0x3f8a(%rip)        # 405070 <__memmove_chk@GLIBC_2.3.4>
  4010e6:	68 0b 00 00 00       	pushq  $0xb
  4010eb:	e9 30 ff ff ff       	jmpq   401020 <.plt>

00000000004010f0 <memcpy@plt>:
  4010f0:	ff 25 82 3f 00 00    	jmpq   *0x3f82(%rip)        # 405078 <memcpy@GLIBC_2.14>
  4010f6:	68 0c 00 00 00       	pushq  $0xc
  4010fb:	e9 20 ff ff ff       	jmpq   401020 <.plt>

0000000000401100 <fflush@plt>:
  401100:	ff 25 7a 3f 00 00    	jmpq   *0x3f7a(%rip)        # 405080 <fflush@GLIBC_2.2.5>
  401106:	68 0d 00 00 00       	pushq  $0xd
  40110b:	e9 10 ff ff ff       	jmpq   401020 <.plt>

0000000000401110 <__isoc99_sscanf@plt>:
  401110:	ff 25 72 3f 00 00    	jmpq   *0x3f72(%rip)        # 405088 <__isoc99_sscanf@GLIBC_2.7>
  401116:	68 0e 00 00 00       	pushq  $0xe
  40111b:	e9 00 ff ff ff       	jmpq   401020 <.plt>

0000000000401120 <__printf_chk@plt>:
  401120:	ff 25 6a 3f 00 00    	jmpq   *0x3f6a(%rip)        # 405090 <__printf_chk@GLIBC_2.3.4>
  401126:	68 0f 00 00 00       	pushq  $0xf
  40112b:	e9 f0 fe ff ff       	jmpq   401020 <.plt>

0000000000401130 <fopen@plt>:
  401130:	ff 25 62 3f 00 00    	jmpq   *0x3f62(%rip)        # 405098 <fopen@GLIBC_2.2.5>
  401136:	68 10 00 00 00       	pushq  $0x10
  40113b:	e9 e0 fe ff ff       	jmpq   401020 <.plt>

0000000000401140 <atoi@plt>:
  401140:	ff 25 5a 3f 00 00    	jmpq   *0x3f5a(%rip)        # 4050a0 <atoi@GLIBC_2.2.5>
  401146:	68 11 00 00 00       	pushq  $0x11
  40114b:	e9 d0 fe ff ff       	jmpq   401020 <.plt>

0000000000401150 <exit@plt>:
  401150:	ff 25 52 3f 00 00    	jmpq   *0x3f52(%rip)        # 4050a8 <exit@GLIBC_2.2.5>
  401156:	68 12 00 00 00       	pushq  $0x12
  40115b:	e9 c0 fe ff ff       	jmpq   401020 <.plt>

0000000000401160 <connect@plt>:
  401160:	ff 25 4a 3f 00 00    	jmpq   *0x3f4a(%rip)        # 4050b0 <connect@GLIBC_2.2.5>
  401166:	68 13 00 00 00       	pushq  $0x13
  40116b:	e9 b0 fe ff ff       	jmpq   401020 <.plt>

0000000000401170 <__fprintf_chk@plt>:
  401170:	ff 25 42 3f 00 00    	jmpq   *0x3f42(%rip)        # 4050b8 <__fprintf_chk@GLIBC_2.3.4>
  401176:	68 14 00 00 00       	pushq  $0x14
  40117b:	e9 a0 fe ff ff       	jmpq   401020 <.plt>

0000000000401180 <sleep@plt>:
  401180:	ff 25 3a 3f 00 00    	jmpq   *0x3f3a(%rip)        # 4050c0 <sleep@GLIBC_2.2.5>
  401186:	68 15 00 00 00       	pushq  $0x15
  40118b:	e9 90 fe ff ff       	jmpq   401020 <.plt>

0000000000401190 <__ctype_b_loc@plt>:
  401190:	ff 25 32 3f 00 00    	jmpq   *0x3f32(%rip)        # 4050c8 <__ctype_b_loc@GLIBC_2.3>
  401196:	68 16 00 00 00       	pushq  $0x16
  40119b:	e9 80 fe ff ff       	jmpq   401020 <.plt>

00000000004011a0 <__sprintf_chk@plt>:
  4011a0:	ff 25 2a 3f 00 00    	jmpq   *0x3f2a(%rip)        # 4050d0 <__sprintf_chk@GLIBC_2.3.4>
  4011a6:	68 17 00 00 00       	pushq  $0x17
  4011ab:	e9 70 fe ff ff       	jmpq   401020 <.plt>

00000000004011b0 <socket@plt>:
  4011b0:	ff 25 22 3f 00 00    	jmpq   *0x3f22(%rip)        # 4050d8 <socket@GLIBC_2.2.5>
  4011b6:	68 18 00 00 00       	pushq  $0x18
  4011bb:	e9 60 fe ff ff       	jmpq   401020 <.plt>

Disassembly of section .text:

00000000004011c0 <_start>:
  4011c0:	f3 0f 1e fa          	endbr64 
  4011c4:	31 ed                	xor    %ebp,%ebp
  4011c6:	49 89 d1             	mov    %rdx,%r9
  4011c9:	5e                   	pop    %rsi
  4011ca:	48 89 e2             	mov    %rsp,%rdx
  4011cd:	48 83 e4 f0          	and    $0xfffffffffffffff0,%rsp
  4011d1:	50                   	push   %rax
  4011d2:	54                   	push   %rsp
  4011d3:	49 c7 c0 b0 27 40 00 	mov    $0x4027b0,%r8
  4011da:	48 c7 c1 40 27 40 00 	mov    $0x402740,%rcx
  4011e1:	48 c7 c7 a6 12 40 00 	mov    $0x4012a6,%rdi
  4011e8:	ff 15 02 3e 00 00    	callq  *0x3e02(%rip)        # 404ff0 <__libc_start_main@GLIBC_2.2.5>
  4011ee:	f4                   	hlt    
  4011ef:	90                   	nop

00000000004011f0 <_dl_relocate_static_pie>:
  4011f0:	f3 0f 1e fa          	endbr64 
  4011f4:	c3                   	retq   
  4011f5:	66 2e 0f 1f 84 00 00 	nopw   %cs:0x0(%rax,%rax,1)
  4011fc:	00 00 00 
  4011ff:	90                   	nop

0000000000401200 <deregister_tm_clones>:
  401200:	b8 40 57 40 00       	mov    $0x405740,%eax
  401205:	48 3d 40 57 40 00    	cmp    $0x405740,%rax
  40120b:	74 13                	je     401220 <deregister_tm_clones+0x20>
  40120d:	b8 00 00 00 00       	mov    $0x0,%eax
  401212:	48 85 c0             	test   %rax,%rax
  401215:	74 09                	je     401220 <deregister_tm_clones+0x20>
  401217:	bf 40 57 40 00       	mov    $0x405740,%edi
  40121c:	ff e0                	jmpq   *%rax
  40121e:	66 90                	xchg   %ax,%ax
  401220:	c3                   	retq   
  401221:	66 66 2e 0f 1f 84 00 	data16 nopw %cs:0x0(%rax,%rax,1)
  401228:	00 00 00 00 
  40122c:	0f 1f 40 00          	nopl   0x0(%rax)

0000000000401230 <register_tm_clones>:
  401230:	be 40 57 40 00       	mov    $0x405740,%esi
  401235:	48 81 ee 40 57 40 00 	sub    $0x405740,%rsi
  40123c:	48 89 f0             	mov    %rsi,%rax
  40123f:	48 c1 ee 3f          	shr    $0x3f,%rsi
  401243:	48 c1 f8 03          	sar    $0x3,%rax
  401247:	48 01 c6             	add    %rax,%rsi
  40124a:	48 d1 fe             	sar    %rsi
  40124d:	74 11                	je     401260 <register_tm_clones+0x30>
  40124f:	b8 00 00 00 00       	mov    $0x0,%eax
  401254:	48 85 c0             	test   %rax,%rax
  401257:	74 07                	je     401260 <register_tm_clones+0x30>
  401259:	bf 40 57 40 00       	mov    $0x405740,%edi
  40125e:	ff e0                	jmpq   *%rax
  401260:	c3                   	retq   
  401261:	66 66 2e 0f 1f 84 00 	data16 nopw %cs:0x0(%rax,%rax,1)
  401268:	00 00 00 00 
  40126c:	0f 1f 40 00          	nopl   0x0(%rax)

0000000000401270 <__do_global_dtors_aux>:
  401270:	f3 0f 1e fa          	endbr64 
  401274:	80 3d ed 44 00 00 00 	cmpb   $0x0,0x44ed(%rip)        # 405768 <completed.8055>
  40127b:	75 13                	jne    401290 <__do_global_dtors_aux+0x20>
  40127d:	55                   	push   %rbp
  40127e:	48 89 e5             	mov    %rsp,%rbp
  401281:	e8 7a ff ff ff       	callq  401200 <deregister_tm_clones>
  401286:	c6 05 db 44 00 00 01 	movb   $0x1,0x44db(%rip)        # 405768 <completed.8055>
  40128d:	5d                   	pop    %rbp
  40128e:	c3                   	retq   
  40128f:	90                   	nop
  401290:	c3                   	retq   
  401291:	66 66 2e 0f 1f 84 00 	data16 nopw %cs:0x0(%rax,%rax,1)
  401298:	00 00 00 00 
  40129c:	0f 1f 40 00          	nopl   0x0(%rax)

00000000004012a0 <frame_dummy>:
  4012a0:	f3 0f 1e fa          	endbr64 
  4012a4:	eb 8a                	jmp    401230 <register_tm_clones>

00000000004012a6 <main>:
  4012a6:	55                   	push   %rbp
  4012a7:	48 89 e5             	mov    %rsp,%rbp
  4012aa:	53                   	push   %rbx
  4012ab:	48 83 ec 08          	sub    $0x8,%rsp
  4012af:	83 ff 01             	cmp    $0x1,%edi
  4012b2:	0f 84 ed 00 00 00    	je     4013a5 <main+0xff>
  4012b8:	48 89 f3             	mov    %rsi,%rbx
  4012bb:	83 ff 02             	cmp    $0x2,%edi
  4012be:	0f 85 14 01 00 00    	jne    4013d8 <main+0x132>
  4012c4:	48 8b 7e 08          	mov    0x8(%rsi),%rdi
  4012c8:	be 04 30 40 00       	mov    $0x403004,%esi
  4012cd:	e8 5e fe ff ff       	callq  401130 <fopen@plt>
  4012d2:	48 89 05 97 44 00 00 	mov    %rax,0x4497(%rip)        # 405770 <infile>
  4012d9:	48 85 c0             	test   %rax,%rax
  4012dc:	0f 84 d6 00 00 00    	je     4013b8 <main+0x112>
  4012e2:	e8 9f 05 00 00       	callq  401886 <initialize_bomb>
  4012e7:	bf 88 30 40 00       	mov    $0x403088,%edi
  4012ec:	e8 6f fd ff ff       	callq  401060 <puts@plt>
  4012f1:	bf c8 30 40 00       	mov    $0x4030c8,%edi
  4012f6:	e8 65 fd ff ff       	callq  401060 <puts@plt>
  4012fb:	e8 83 06 00 00       	callq  401983 <read_line>
  401300:	48 89 c7             	mov    %rax,%rdi
  401303:	e8 f1 00 00 00       	callq  4013f9 <phase_1>
  401308:	e8 a1 07 00 00       	callq  401aae <phase_defused>
  40130d:	bf f8 30 40 00       	mov    $0x4030f8,%edi
  401312:	e8 49 fd ff ff       	callq  401060 <puts@plt>
  401317:	e8 67 06 00 00       	callq  401983 <read_line>
  40131c:	48 89 c7             	mov    %rax,%rdi
  40131f:	e8 f0 00 00 00       	callq  401414 <phase_2>
  401324:	e8 85 07 00 00       	callq  401aae <phase_defused>
  401329:	bf 3d 30 40 00       	mov    $0x40303d,%edi
  40132e:	e8 2d fd ff ff       	callq  401060 <puts@plt>
  401333:	e8 4b 06 00 00       	callq  401983 <read_line>
  401338:	48 89 c7             	mov    %rax,%rdi
  40133b:	e8 24 01 00 00       	callq  401464 <phase_3>
  401340:	e8 69 07 00 00       	callq  401aae <phase_defused>
  401345:	bf 5b 30 40 00       	mov    $0x40305b,%edi
  40134a:	e8 11 fd ff ff       	callq  401060 <puts@plt>
  40134f:	e8 2f 06 00 00       	callq  401983 <read_line>
  401354:	48 89 c7             	mov    %rax,%rdi
  401357:	e8 f5 01 00 00       	callq  401551 <phase_4>
  40135c:	e8 4d 07 00 00       	callq  401aae <phase_defused>
  401361:	bf 28 31 40 00       	mov    $0x403128,%edi
  401366:	e8 f5 fc ff ff       	callq  401060 <puts@plt>
  40136b:	e8 13 06 00 00       	callq  401983 <read_line>
  401370:	48 89 c7             	mov    %rax,%rdi
  401373:	e8 32 02 00 00       	callq  4015aa <phase_5>
  401378:	e8 31 07 00 00       	callq  401aae <phase_defused>
  40137d:	bf 6a 30 40 00       	mov    $0x40306a,%edi
  401382:	e8 d9 fc ff ff       	callq  401060 <puts@plt>
  401387:	e8 f7 05 00 00       	callq  401983 <read_line>
  40138c:	48 89 c7             	mov    %rax,%rdi
  40138f:	e8 80 02 00 00       	callq  401614 <phase_6>
  401394:	e8 15 07 00 00       	callq  401aae <phase_defused>
  401399:	b8 00 00 00 00       	mov    $0x0,%eax
  40139e:	48 83 c4 08          	add    $0x8,%rsp
  4013a2:	5b                   	pop    %rbx
  4013a3:	5d                   	pop    %rbp
  4013a4:	c3                   	retq   
  4013a5:	48 8b 05 a4 43 00 00 	mov    0x43a4(%rip),%rax        # 405750 <stdin@@GLIBC_2.2.5>
  4013ac:	48 89 05 bd 43 00 00 	mov    %rax,0x43bd(%rip)        # 405770 <infile>
  4013b3:	e9 2a ff ff ff       	jmpq   4012e2 <main+0x3c>
  4013b8:	48 8b 4b 08          	mov    0x8(%rbx),%rcx
  4013bc:	48 8b 13             	mov    (%rbx),%rdx
  4013bf:	be 06 30 40 00       	mov    $0x403006,%esi
  4013c4:	bf 01 00 00 00       	mov    $0x1,%edi
  4013c9:	e8 52 fd ff ff       	callq  401120 <__printf_chk@plt>
  4013ce:	bf 08 00 00 00       	mov    $0x8,%edi
  4013d3:	e8 78 fd ff ff       	callq  401150 <exit@plt>
  4013d8:	48 8b 16             	mov    (%rsi),%rdx
  4013db:	be 23 30 40 00       	mov    $0x403023,%esi
  4013e0:	bf 01 00 00 00       	mov    $0x1,%edi
  4013e5:	b8 00 00 00 00       	mov    $0x0,%eax
  4013ea:	e8 31 fd ff ff       	callq  401120 <__printf_chk@plt>
  4013ef:	bf 08 00 00 00       	mov    $0x8,%edi
  4013f4:	e8 57 fd ff ff       	callq  401150 <exit@plt>

00000000004013f9 <phase_1>:
  4013f9:	55                   	push   %rbp
  4013fa:	48 89 e5             	mov    %rsp,%rbp
  4013fd:	be 4c 31 40 00       	mov    $0x40314c,%esi
  401402:	e8 22 04 00 00       	callq  401829 <strings_not_equal>
  401407:	85 c0                	test   %eax,%eax
  401409:	75 02                	jne    40140d <phase_1+0x14>
  40140b:	5d                   	pop    %rbp
  40140c:	c3                   	retq   
  40140d:	e8 13 05 00 00       	callq  401925 <explode_bomb>
  401412:	eb f7                	jmp    40140b <phase_1+0x12>

0000000000401414 <phase_2>:
  401414:	55                   	push   %rbp
  401415:	48 89 e5             	mov    %rsp,%rbp
  401418:	53                   	push   %rbx
  401419:	48 83 ec 28          	sub    $0x28,%rsp
  40141d:	48 8d 75 d0          	lea    -0x30(%rbp),%rsi
  401421:	e8 21 05 00 00       	callq  401947 <read_six_numbers>
  401426:	83 7d d0 01          	cmpl   $0x1,-0x30(%rbp)
  40142a:	75 07                	jne    401433 <phase_2+0x1f>
  40142c:	bb 01 00 00 00       	mov    $0x1,%ebx
  401431:	eb 0f                	jmp    401442 <phase_2+0x2e>
  401433:	e8 ed 04 00 00       	callq  401925 <explode_bomb>
  401438:	eb f2                	jmp    40142c <phase_2+0x18>
  40143a:	e8 e6 04 00 00       	callq  401925 <explode_bomb>
  40143f:	83 c3 01             	add    $0x1,%ebx
  401442:	83 fb 05             	cmp    $0x5,%ebx
  401445:	7f 16                	jg     40145d <phase_2+0x49>
  401447:	48 63 d3             	movslq %ebx,%rdx
  40144a:	8d 43 ff             	lea    -0x1(%rbx),%eax
  40144d:	48 98                	cltq   
  40144f:	8b 44 85 d0          	mov    -0x30(%rbp,%rax,4),%eax
  401453:	01 c0                	add    %eax,%eax
  401455:	39 44 95 d0          	cmp    %eax,-0x30(%rbp,%rdx,4)
  401459:	74 e4                	je     40143f <phase_2+0x2b>
  40145b:	eb dd                	jmp    40143a <phase_2+0x26>
  40145d:	48 83 c4 28          	add    $0x28,%rsp
  401461:	5b                   	pop    %rbx
  401462:	5d                   	pop    %rbp
  401463:	c3                   	retq   

0000000000401464 <phase_3>:
  401464:	55                   	push   %rbp
  401465:	48 89 e5             	mov    %rsp,%rbp
  401468:	48 83 ec 10          	sub    $0x10,%rsp
  40146c:	48 8d 4d f8          	lea    -0x8(%rbp),%rcx
  401470:	48 8d 55 fc          	lea    -0x4(%rbp),%rdx
  401474:	be 37 33 40 00       	mov    $0x403337,%esi
  401479:	b8 00 00 00 00       	mov    $0x0,%eax
  40147e:	e8 8d fc ff ff       	callq  401110 <__isoc99_sscanf@plt>
  401483:	83 f8 01             	cmp    $0x1,%eax
  401486:	7e 11                	jle    401499 <phase_3+0x35>
  401488:	8b 45 fc             	mov    -0x4(%rbp),%eax
  40148b:	83 f8 07             	cmp    $0x7,%eax
  40148e:	77 7b                	ja     40150b <phase_3+0xa7>
  401490:	89 c0                	mov    %eax,%eax
  401492:	ff 24 c5 80 31 40 00 	jmpq   *0x403180(,%rax,8)
  401499:	e8 87 04 00 00       	callq  401925 <explode_bomb>
  40149e:	eb e8                	jmp    401488 <phase_3+0x24>
  4014a0:	b8 00 00 00 00       	mov    $0x0,%eax
  4014a5:	2d 3d 01 00 00       	sub    $0x13d,%eax
  4014aa:	05 fd 00 00 00       	add    $0xfd,%eax
  4014af:	2d 02 01 00 00       	sub    $0x102,%eax
  4014b4:	05 02 01 00 00       	add    $0x102,%eax
  4014b9:	2d 02 01 00 00       	sub    $0x102,%eax
  4014be:	05 02 01 00 00       	add    $0x102,%eax
  4014c3:	2d 02 01 00 00       	sub    $0x102,%eax
  4014c8:	83 7d fc 05          	cmpl   $0x5,-0x4(%rbp)
  4014cc:	7f 05                	jg     4014d3 <phase_3+0x6f>
  4014ce:	39 45 f8             	cmp    %eax,-0x8(%rbp)
  4014d1:	74 05                	je     4014d8 <phase_3+0x74>
  4014d3:	e8 4d 04 00 00       	callq  401925 <explode_bomb>
  4014d8:	c9                   	leaveq 
  4014d9:	c3                   	retq   
  4014da:	b8 1f 01 00 00       	mov    $0x11f,%eax
  4014df:	eb c4                	jmp    4014a5 <phase_3+0x41>
  4014e1:	b8 00 00 00 00       	mov    $0x0,%eax
  4014e6:	eb c2                	jmp    4014aa <phase_3+0x46>
  4014e8:	b8 00 00 00 00       	mov    $0x0,%eax
  4014ed:	eb c0                	jmp    4014af <phase_3+0x4b>
  4014ef:	b8 00 00 00 00       	mov    $0x0,%eax
  4014f4:	eb be                	jmp    4014b4 <phase_3+0x50>
  4014f6:	b8 00 00 00 00       	mov    $0x0,%eax
  4014fb:	eb bc                	jmp    4014b9 <phase_3+0x55>
  4014fd:	b8 00 00 00 00       	mov    $0x0,%eax
  401502:	eb ba                	jmp    4014be <phase_3+0x5a>
  401504:	b8 00 00 00 00       	mov    $0x0,%eax
  401509:	eb b8                	jmp    4014c3 <phase_3+0x5f>
  40150b:	e8 15 04 00 00       	callq  401925 <explode_bomb>
  401510:	b8 00 00 00 00       	mov    $0x0,%eax
  401515:	eb b1                	jmp    4014c8 <phase_3+0x64>

0000000000401517 <func4>:
  401517:	55                   	push   %rbp
  401518:	48 89 e5             	mov    %rsp,%rbp
  40151b:	89 d1                	mov    %edx,%ecx
  40151d:	29 f1                	sub    %esi,%ecx
  40151f:	89 c8                	mov    %ecx,%eax
  401521:	c1 e8 1f             	shr    $0x1f,%eax
  401524:	01 c8                	add    %ecx,%eax
  401526:	d1 f8                	sar    %eax
  401528:	01 f0                	add    %esi,%eax
  40152a:	39 f8                	cmp    %edi,%eax
  40152c:	7f 09                	jg     401537 <func4+0x20>
  40152e:	7c 13                	jl     401543 <func4+0x2c>
  401530:	b8 00 00 00 00       	mov    $0x0,%eax
  401535:	5d                   	pop    %rbp
  401536:	c3                   	retq   
  401537:	8d 50 ff             	lea    -0x1(%rax),%edx
  40153a:	e8 d8 ff ff ff       	callq  401517 <func4>
  40153f:	01 c0                	add    %eax,%eax
  401541:	eb f2                	jmp    401535 <func4+0x1e>
  401543:	8d 70 01             	lea    0x1(%rax),%esi
  401546:	e8 cc ff ff ff       	callq  401517 <func4>
  40154b:	8d 44 00 01          	lea    0x1(%rax,%rax,1),%eax
  40154f:	eb e4                	jmp    401535 <func4+0x1e>

0000000000401551 <phase_4>:
  401551:	55                   	push   %rbp
  401552:	48 89 e5             	mov    %rsp,%rbp
  401555:	48 83 ec 10          	sub    $0x10,%rsp
  401559:	48 8d 4d f8          	lea    -0x8(%rbp),%rcx
  40155d:	48 8d 55 fc          	lea    -0x4(%rbp),%rdx
  401561:	be 37 33 40 00       	mov    $0x403337,%esi
  401566:	b8 00 00 00 00       	mov    $0x0,%eax
  40156b:	e8 a0 fb ff ff       	callq  401110 <__isoc99_sscanf@plt>
  401570:	83 f8 02             	cmp    $0x2,%eax
  401573:	75 0c                	jne    401581 <phase_4+0x30>
  401575:	8b 45 fc             	mov    -0x4(%rbp),%eax
  401578:	85 c0                	test   %eax,%eax
  40157a:	78 05                	js     401581 <phase_4+0x30>
  40157c:	83 f8 0e             	cmp    $0xe,%eax
  40157f:	7e 05                	jle    401586 <phase_4+0x35>
  401581:	e8 9f 03 00 00       	callq  401925 <explode_bomb>
  401586:	ba 0e 00 00 00       	mov    $0xe,%edx
  40158b:	be 00 00 00 00       	mov    $0x0,%esi
  401590:	8b 7d fc             	mov    -0x4(%rbp),%edi
  401593:	e8 7f ff ff ff       	callq  401517 <func4>
  401598:	83 f8 02             	cmp    $0x2,%eax
  40159b:	75 06                	jne    4015a3 <phase_4+0x52>
  40159d:	83 7d f8 02          	cmpl   $0x2,-0x8(%rbp)
  4015a1:	74 05                	je     4015a8 <phase_4+0x57>
  4015a3:	e8 7d 03 00 00       	callq  401925 <explode_bomb>
  4015a8:	c9                   	leaveq 
  4015a9:	c3                   	retq   

00000000004015aa <phase_5>:
  4015aa:	55                   	push   %rbp
  4015ab:	48 89 e5             	mov    %rsp,%rbp
  4015ae:	48 83 ec 10          	sub    $0x10,%rsp
  4015b2:	48 8d 4d f8          	lea    -0x8(%rbp),%rcx
  4015b6:	48 8d 55 fc          	lea    -0x4(%rbp),%rdx
  4015ba:	be 37 33 40 00       	mov    $0x403337,%esi
  4015bf:	b8 00 00 00 00       	mov    $0x0,%eax
  4015c4:	e8 47 fb ff ff       	callq  401110 <__isoc99_sscanf@plt>
  4015c9:	83 f8 01             	cmp    $0x1,%eax
  4015cc:	7e 2e                	jle    4015fc <phase_5+0x52>
  4015ce:	8b 45 fc             	mov    -0x4(%rbp),%eax
  4015d1:	83 e0 0f             	and    $0xf,%eax
  4015d4:	89 45 fc             	mov    %eax,-0x4(%rbp)
  4015d7:	b9 00 00 00 00       	mov    $0x0,%ecx
  4015dc:	ba 00 00 00 00       	mov    $0x0,%edx
  4015e1:	8b 45 fc             	mov    -0x4(%rbp),%eax
  4015e4:	83 f8 0f             	cmp    $0xf,%eax
  4015e7:	74 1a                	je     401603 <phase_5+0x59>
  4015e9:	83 c2 01             	add    $0x1,%edx
  4015ec:	48 98                	cltq   
  4015ee:	8b 04 85 c0 31 40 00 	mov    0x4031c0(,%rax,4),%eax
  4015f5:	89 45 fc             	mov    %eax,-0x4(%rbp)
  4015f8:	01 c1                	add    %eax,%ecx
  4015fa:	eb e5                	jmp    4015e1 <phase_5+0x37>
  4015fc:	e8 24 03 00 00       	callq  401925 <explode_bomb>
  401601:	eb cb                	jmp    4015ce <phase_5+0x24>
  401603:	83 fa 0f             	cmp    $0xf,%edx
  401606:	75 05                	jne    40160d <phase_5+0x63>
  401608:	39 4d f8             	cmp    %ecx,-0x8(%rbp)
  40160b:	74 05                	je     401612 <phase_5+0x68>
  40160d:	e8 13 03 00 00       	callq  401925 <explode_bomb>
  401612:	c9                   	leaveq 
  401613:	c3                   	retq   

0000000000401614 <phase_6>:
  401614:	55                   	push   %rbp
  401615:	48 89 e5             	mov    %rsp,%rbp
  401618:	41 55                	push   %r13
  40161a:	41 54                	push   %r12
  40161c:	53                   	push   %rbx
  40161d:	48 83 ec 58          	sub    $0x58,%rsp
  401621:	48 8d 75 c0          	lea    -0x40(%rbp),%rsi
  401625:	e8 1d 03 00 00       	callq  401947 <read_six_numbers>
  40162a:	41 bc 00 00 00 00    	mov    $0x0,%r12d
  401630:	eb 29                	jmp    40165b <phase_6+0x47>
  401632:	e8 ee 02 00 00       	callq  401925 <explode_bomb>
  401637:	eb 37                	jmp    401670 <phase_6+0x5c>
  401639:	83 c3 01             	add    $0x1,%ebx
  40163c:	83 fb 05             	cmp    $0x5,%ebx
  40163f:	7f 17                	jg     401658 <phase_6+0x44>
  401641:	49 63 c4             	movslq %r12d,%rax
  401644:	48 63 d3             	movslq %ebx,%rdx
  401647:	8b 7c 95 c0          	mov    -0x40(%rbp,%rdx,4),%edi
  40164b:	39 7c 85 c0          	cmp    %edi,-0x40(%rbp,%rax,4)
  40164f:	75 e8                	jne    401639 <phase_6+0x25>
  401651:	e8 cf 02 00 00       	callq  401925 <explode_bomb>
  401656:	eb e1                	jmp    401639 <phase_6+0x25>
  401658:	45 89 ec             	mov    %r13d,%r12d
  40165b:	41 83 fc 05          	cmp    $0x5,%r12d
  40165f:	7f 19                	jg     40167a <phase_6+0x66>
  401661:	49 63 c4             	movslq %r12d,%rax
  401664:	8b 44 85 c0          	mov    -0x40(%rbp,%rax,4),%eax
  401668:	83 e8 01             	sub    $0x1,%eax
  40166b:	83 f8 05             	cmp    $0x5,%eax
  40166e:	77 c2                	ja     401632 <phase_6+0x1e>
  401670:	45 8d 6c 24 01       	lea    0x1(%r12),%r13d
  401675:	44 89 eb             	mov    %r13d,%ebx
  401678:	eb c2                	jmp    40163c <phase_6+0x28>
  40167a:	be 00 00 00 00       	mov    $0x0,%esi
  40167f:	eb 08                	jmp    401689 <phase_6+0x75>
  401681:	48 89 54 cd 90       	mov    %rdx,-0x70(%rbp,%rcx,8)
  401686:	83 c6 01             	add    $0x1,%esi
  401689:	83 fe 05             	cmp    $0x5,%esi
  40168c:	7f 1c                	jg     4016aa <phase_6+0x96>
  40168e:	b8 01 00 00 00       	mov    $0x1,%eax
  401693:	ba d0 52 40 00       	mov    $0x4052d0,%edx
  401698:	48 63 ce             	movslq %esi,%rcx
  40169b:	39 44 8d c0          	cmp    %eax,-0x40(%rbp,%rcx,4)
  40169f:	7e e0                	jle    401681 <phase_6+0x6d>
  4016a1:	48 8b 52 08          	mov    0x8(%rdx),%rdx
  4016a5:	83 c0 01             	add    $0x1,%eax
  4016a8:	eb ee                	jmp    401698 <phase_6+0x84>
  4016aa:	48 8b 5d 90          	mov    -0x70(%rbp),%rbx
  4016ae:	48 89 d9             	mov    %rbx,%rcx
  4016b1:	b8 01 00 00 00       	mov    $0x1,%eax
  4016b6:	eb 12                	jmp    4016ca <phase_6+0xb6>
  4016b8:	48 63 d0             	movslq %eax,%rdx
  4016bb:	48 8b 54 d5 90       	mov    -0x70(%rbp,%rdx,8),%rdx
  4016c0:	48 89 51 08          	mov    %rdx,0x8(%rcx)
  4016c4:	83 c0 01             	add    $0x1,%eax
  4016c7:	48 89 d1             	mov    %rdx,%rcx
  4016ca:	83 f8 05             	cmp    $0x5,%eax
  4016cd:	7e e9                	jle    4016b8 <phase_6+0xa4>
  4016cf:	48 c7 41 08 00 00 00 	movq   $0x0,0x8(%rcx)
  4016d6:	00 
  4016d7:	41 bc 00 00 00 00    	mov    $0x0,%r12d
  4016dd:	eb 08                	jmp    4016e7 <phase_6+0xd3>
  4016df:	48 8b 5b 08          	mov    0x8(%rbx),%rbx
  4016e3:	41 83 c4 01          	add    $0x1,%r12d
  4016e7:	41 83 fc 04          	cmp    $0x4,%r12d
  4016eb:	7f 11                	jg     4016fe <phase_6+0xea>
  4016ed:	48 8b 43 08          	mov    0x8(%rbx),%rax
  4016f1:	8b 00                	mov    (%rax),%eax
  4016f3:	39 03                	cmp    %eax,(%rbx)
  4016f5:	7d e8                	jge    4016df <phase_6+0xcb>
  4016f7:	e8 29 02 00 00       	callq  401925 <explode_bomb>
  4016fc:	eb e1                	jmp    4016df <phase_6+0xcb>
  4016fe:	48 83 c4 58          	add    $0x58,%rsp
  401702:	5b                   	pop    %rbx
  401703:	41 5c                	pop    %r12
  401705:	41 5d                	pop    %r13
  401707:	5d                   	pop    %rbp
  401708:	c3                   	retq   

0000000000401709 <fun7>:
  401709:	48 85 ff             	test   %rdi,%rdi
  40170c:	74 2f                	je     40173d <fun7+0x34>
  40170e:	55                   	push   %rbp
  40170f:	48 89 e5             	mov    %rsp,%rbp
  401712:	8b 07                	mov    (%rdi),%eax
  401714:	39 f0                	cmp    %esi,%eax
  401716:	7f 09                	jg     401721 <fun7+0x18>
  401718:	75 14                	jne    40172e <fun7+0x25>
  40171a:	b8 00 00 00 00       	mov    $0x0,%eax
  40171f:	5d                   	pop    %rbp
  401720:	c3                   	retq   
  401721:	48 8b 7f 08          	mov    0x8(%rdi),%rdi
  401725:	e8 df ff ff ff       	callq  401709 <fun7>
  40172a:	01 c0                	add    %eax,%eax
  40172c:	eb f1                	jmp    40171f <fun7+0x16>
  40172e:	48 8b 7f 10          	mov    0x10(%rdi),%rdi
  401732:	e8 d2 ff ff ff       	callq  401709 <fun7>
  401737:	8d 44 00 01          	lea    0x1(%rax,%rax,1),%eax
  40173b:	eb e2                	jmp    40171f <fun7+0x16>
  40173d:	b8 ff ff ff ff       	mov    $0xffffffff,%eax
  401742:	c3                   	retq   

0000000000401743 <secret_phase>:
  401743:	55                   	push   %rbp
  401744:	48 89 e5             	mov    %rsp,%rbp
  401747:	53                   	push   %rbx
  401748:	48 83 ec 08          	sub    $0x8,%rsp
  40174c:	e8 32 02 00 00       	callq  401983 <read_line>
  401751:	48 89 c7             	mov    %rax,%rdi
  401754:	e8 e7 f9 ff ff       	callq  401140 <atoi@plt>
  401759:	89 c3                	mov    %eax,%ebx
  40175b:	8d 40 ff             	lea    -0x1(%rax),%eax
  40175e:	3d e8 03 00 00       	cmp    $0x3e8,%eax
  401763:	77 27                	ja     40178c <secret_phase+0x49>
  401765:	89 de                	mov    %ebx,%esi
  401767:	bf f0 50 40 00       	mov    $0x4050f0,%edi
  40176c:	e8 98 ff ff ff       	callq  401709 <fun7>
  401771:	83 f8 06             	cmp    $0x6,%eax
  401774:	75 1d                	jne    401793 <secret_phase+0x50>
  401776:	bf 00 32 40 00       	mov    $0x403200,%edi
  40177b:	e8 e0 f8 ff ff       	callq  401060 <puts@plt>
  401780:	e8 29 03 00 00       	callq  401aae <phase_defused>
  401785:	48 83 c4 08          	add    $0x8,%rsp
  401789:	5b                   	pop    %rbx
  40178a:	5d                   	pop    %rbp
  40178b:	c3                   	retq   
  40178c:	e8 94 01 00 00       	callq  401925 <explode_bomb>
  401791:	eb d2                	jmp    401765 <secret_phase+0x22>
  401793:	e8 8d 01 00 00       	callq  401925 <explode_bomb>
  401798:	eb dc                	jmp    401776 <secret_phase+0x33>

000000000040179a <sig_handler>:
  40179a:	55                   	push   %rbp
  40179b:	48 89 e5             	mov    %rsp,%rbp
  40179e:	bf 28 32 40 00       	mov    $0x403228,%edi
  4017a3:	e8 b8 f8 ff ff       	callq  401060 <puts@plt>
  4017a8:	bf 03 00 00 00       	mov    $0x3,%edi
  4017ad:	e8 ce f9 ff ff       	callq  401180 <sleep@plt>
  4017b2:	be ea 32 40 00       	mov    $0x4032ea,%esi
  4017b7:	bf 01 00 00 00       	mov    $0x1,%edi
  4017bc:	b8 00 00 00 00       	mov    $0x0,%eax
  4017c1:	e8 5a f9 ff ff       	callq  401120 <__printf_chk@plt>
  4017c6:	48 8b 3d 73 3f 00 00 	mov    0x3f73(%rip),%rdi        # 405740 <stdout@@GLIBC_2.2.5>
  4017cd:	e8 2e f9 ff ff       	callq  401100 <fflush@plt>
  4017d2:	bf 01 00 00 00       	mov    $0x1,%edi
  4017d7:	e8 a4 f9 ff ff       	callq  401180 <sleep@plt>
  4017dc:	bf f2 32 40 00       	mov    $0x4032f2,%edi
  4017e1:	e8 7a f8 ff ff       	callq  401060 <puts@plt>
  4017e6:	bf 10 00 00 00       	mov    $0x10,%edi
  4017eb:	e8 60 f9 ff ff       	callq  401150 <exit@plt>

00000000004017f0 <invalid_phase>:
  4017f0:	55                   	push   %rbp
  4017f1:	48 89 e5             	mov    %rsp,%rbp
  4017f4:	48 89 fa             	mov    %rdi,%rdx
  4017f7:	be fa 32 40 00       	mov    $0x4032fa,%esi
  4017fc:	bf 01 00 00 00       	mov    $0x1,%edi
  401801:	b8 00 00 00 00       	mov    $0x0,%eax
  401806:	e8 15 f9 ff ff       	callq  401120 <__printf_chk@plt>
  40180b:	bf 08 00 00 00       	mov    $0x8,%edi
  401810:	e8 3b f9 ff ff       	callq  401150 <exit@plt>

0000000000401815 <string_length>:
  401815:	b8 00 00 00 00       	mov    $0x0,%eax
  40181a:	80 3f 00             	cmpb   $0x0,(%rdi)
  40181d:	74 09                	je     401828 <string_length+0x13>
  40181f:	48 83 c7 01          	add    $0x1,%rdi
  401823:	83 c0 01             	add    $0x1,%eax
  401826:	eb f2                	jmp    40181a <string_length+0x5>
  401828:	c3                   	retq   

0000000000401829 <strings_not_equal>:
  401829:	55                   	push   %rbp
  40182a:	48 89 e5             	mov    %rsp,%rbp
  40182d:	41 55                	push   %r13
  40182f:	41 54                	push   %r12
  401831:	53                   	push   %rbx
  401832:	48 83 ec 08          	sub    $0x8,%rsp
  401836:	48 89 fb             	mov    %rdi,%rbx
  401839:	49 89 f4             	mov    %rsi,%r12
  40183c:	e8 d4 ff ff ff       	callq  401815 <string_length>
  401841:	41 89 c5             	mov    %eax,%r13d
  401844:	4c 89 e7             	mov    %r12,%rdi
  401847:	e8 c9 ff ff ff       	callq  401815 <string_length>
  40184c:	41 39 c5             	cmp    %eax,%r13d
  40184f:	75 1e                	jne    40186f <strings_not_equal+0x46>
  401851:	0f b6 03             	movzbl (%rbx),%eax
  401854:	84 c0                	test   %al,%al
  401856:	74 10                	je     401868 <strings_not_equal+0x3f>
  401858:	41 38 04 24          	cmp    %al,(%r12)
  40185c:	75 21                	jne    40187f <strings_not_equal+0x56>
  40185e:	48 83 c3 01          	add    $0x1,%rbx
  401862:	49 83 c4 01          	add    $0x1,%r12
  401866:	eb e9                	jmp    401851 <strings_not_equal+0x28>
  401868:	b8 00 00 00 00       	mov    $0x0,%eax
  40186d:	eb 05                	jmp    401874 <strings_not_equal+0x4b>
  40186f:	b8 01 00 00 00       	mov    $0x1,%eax
  401874:	48 83 c4 08          	add    $0x8,%rsp
  401878:	5b                   	pop    %rbx
  401879:	41 5c                	pop    %r12
  40187b:	41 5d                	pop    %r13
  40187d:	5d                   	pop    %rbp
  40187e:	c3                   	retq   
  40187f:	b8 01 00 00 00       	mov    $0x1,%eax
  401884:	eb ee                	jmp    401874 <strings_not_equal+0x4b>

0000000000401886 <initialize_bomb>:
  401886:	55                   	push   %rbp
  401887:	48 89 e5             	mov    %rsp,%rbp
  40188a:	be 9a 17 40 00       	mov    $0x40179a,%esi
  40188f:	bf 02 00 00 00       	mov    $0x2,%edi
  401894:	e8 27 f8 ff ff       	callq  4010c0 <signal@plt>
  401899:	5d                   	pop    %rbp
  40189a:	c3                   	retq   

000000000040189b <initialize_bomb_solve>:
  40189b:	c3                   	retq   

000000000040189c <blank_line>:
  40189c:	55                   	push   %rbp
  40189d:	48 89 e5             	mov    %rsp,%rbp
  4018a0:	41 54                	push   %r12
  4018a2:	53                   	push   %rbx
  4018a3:	49 89 fc             	mov    %rdi,%r12
  4018a6:	41 0f b6 1c 24       	movzbl (%r12),%ebx
  4018ab:	84 db                	test   %bl,%bl
  4018ad:	74 1e                	je     4018cd <blank_line+0x31>
  4018af:	e8 dc f8 ff ff       	callq  401190 <__ctype_b_loc@plt>
  4018b4:	48 8b 00             	mov    (%rax),%rax
  4018b7:	49 83 c4 01          	add    $0x1,%r12
  4018bb:	48 0f be db          	movsbq %bl,%rbx
  4018bf:	f6 44 58 01 20       	testb  $0x20,0x1(%rax,%rbx,2)
  4018c4:	75 e0                	jne    4018a6 <blank_line+0xa>
  4018c6:	b8 00 00 00 00       	mov    $0x0,%eax
  4018cb:	eb 05                	jmp    4018d2 <blank_line+0x36>
  4018cd:	b8 01 00 00 00       	mov    $0x1,%eax
  4018d2:	5b                   	pop    %rbx
  4018d3:	41 5c                	pop    %r12
  4018d5:	5d                   	pop    %rbp
  4018d6:	c3                   	retq   

00000000004018d7 <skip>:
  4018d7:	55                   	push   %rbp
  4018d8:	48 89 e5             	mov    %rsp,%rbp
  4018db:	53                   	push   %rbx
  4018dc:	48 83 ec 08          	sub    $0x8,%rsp
  4018e0:	48 63 05 85 3e 00 00 	movslq 0x3e85(%rip),%rax        # 40576c <num_input_strings>
  4018e7:	48 8d 3c 80          	lea    (%rax,%rax,4),%rdi
  4018eb:	48 c1 e7 04          	shl    $0x4,%rdi
  4018ef:	48 81 c7 80 57 40 00 	add    $0x405780,%rdi
  4018f6:	48 8b 15 73 3e 00 00 	mov    0x3e73(%rip),%rdx        # 405770 <infile>
  4018fd:	be 50 00 00 00       	mov    $0x50,%esi
  401902:	e8 a9 f7 ff ff       	callq  4010b0 <fgets@plt>
  401907:	48 89 c3             	mov    %rax,%rbx
  40190a:	48 85 c0             	test   %rax,%rax
  40190d:	74 0c                	je     40191b <skip+0x44>
  40190f:	48 89 c7             	mov    %rax,%rdi
  401912:	e8 85 ff ff ff       	callq  40189c <blank_line>
  401917:	85 c0                	test   %eax,%eax
  401919:	75 c5                	jne    4018e0 <skip+0x9>
  40191b:	48 89 d8             	mov    %rbx,%rax
  40191e:	48 83 c4 08          	add    $0x8,%rsp
  401922:	5b                   	pop    %rbx
  401923:	5d                   	pop    %rbp
  401924:	c3                   	retq   

0000000000401925 <explode_bomb>:
  401925:	55                   	push   %rbp
  401926:	48 89 e5             	mov    %rsp,%rbp
  401929:	bf 0b 33 40 00       	mov    $0x40330b,%edi
  40192e:	e8 2d f7 ff ff       	callq  401060 <puts@plt>
  401933:	bf 14 33 40 00       	mov    $0x403314,%edi
  401938:	e8 23 f7 ff ff       	callq  401060 <puts@plt>
  40193d:	bf 08 00 00 00       	mov    $0x8,%edi
  401942:	e8 09 f8 ff ff       	callq  401150 <exit@plt>

0000000000401947 <read_six_numbers>:
  401947:	55                   	push   %rbp
  401948:	48 89 e5             	mov    %rsp,%rbp
  40194b:	48 89 f2             	mov    %rsi,%rdx
  40194e:	48 8d 4e 04          	lea    0x4(%rsi),%rcx
  401952:	48 8d 46 14          	lea    0x14(%rsi),%rax
  401956:	50                   	push   %rax
  401957:	48 8d 46 10          	lea    0x10(%rsi),%rax
  40195b:	50                   	push   %rax
  40195c:	4c 8d 4e 0c          	lea    0xc(%rsi),%r9
  401960:	4c 8d 46 08          	lea    0x8(%rsi),%r8
  401964:	be 2b 33 40 00       	mov    $0x40332b,%esi
  401969:	b8 00 00 00 00       	mov    $0x0,%eax
  40196e:	e8 9d f7 ff ff       	callq  401110 <__isoc99_sscanf@plt>
  401973:	48 83 c4 10          	add    $0x10,%rsp
  401977:	83 f8 05             	cmp    $0x5,%eax
  40197a:	7e 02                	jle    40197e <read_six_numbers+0x37>
  40197c:	c9                   	leaveq 
  40197d:	c3                   	retq   
  40197e:	e8 a2 ff ff ff       	callq  401925 <explode_bomb>

0000000000401983 <read_line>:
  401983:	55                   	push   %rbp
  401984:	48 89 e5             	mov    %rsp,%rbp
  401987:	b8 00 00 00 00       	mov    $0x0,%eax
  40198c:	e8 46 ff ff ff       	callq  4018d7 <skip>
  401991:	48 85 c0             	test   %rax,%rax
  401994:	74 60                	je     4019f6 <read_line+0x73>
  401996:	8b 35 d0 3d 00 00    	mov    0x3dd0(%rip),%esi        # 40576c <num_input_strings>
  40199c:	48 63 c6             	movslq %esi,%rax
  40199f:	48 8d 14 80          	lea    (%rax,%rax,4),%rdx
  4019a3:	48 c1 e2 04          	shl    $0x4,%rdx
  4019a7:	48 81 c2 80 57 40 00 	add    $0x405780,%rdx
  4019ae:	48 c7 c1 ff ff ff ff 	mov    $0xffffffffffffffff,%rcx
  4019b5:	b8 00 00 00 00       	mov    $0x0,%eax
  4019ba:	48 89 d7             	mov    %rdx,%rdi
  4019bd:	f2 ae                	repnz scas %es:(%rdi),%al
  4019bf:	48 f7 d1             	not    %rcx
  4019c2:	48 83 e9 01          	sub    $0x1,%rcx
  4019c6:	83 f9 4e             	cmp    $0x4e,%ecx
  4019c9:	0f 8f 99 00 00 00    	jg     401a68 <read_line+0xe5>
  4019cf:	83 e9 01             	sub    $0x1,%ecx
  4019d2:	48 63 c9             	movslq %ecx,%rcx
  4019d5:	48 63 c6             	movslq %esi,%rax
  4019d8:	48 8d 04 80          	lea    (%rax,%rax,4),%rax
  4019dc:	48 c1 e0 04          	shl    $0x4,%rax
  4019e0:	c6 84 01 80 57 40 00 	movb   $0x0,0x405780(%rcx,%rax,1)
  4019e7:	00 
  4019e8:	8d 46 01             	lea    0x1(%rsi),%eax
  4019eb:	89 05 7b 3d 00 00    	mov    %eax,0x3d7b(%rip)        # 40576c <num_input_strings>
  4019f1:	48 89 d0             	mov    %rdx,%rax
  4019f4:	5d                   	pop    %rbp
  4019f5:	c3                   	retq   
  4019f6:	48 8b 05 53 3d 00 00 	mov    0x3d53(%rip),%rax        # 405750 <stdin@@GLIBC_2.2.5>
  4019fd:	48 39 05 6c 3d 00 00 	cmp    %rax,0x3d6c(%rip)        # 405770 <infile>
  401a04:	74 19                	je     401a1f <read_line+0x9c>
  401a06:	bf 5b 33 40 00       	mov    $0x40335b,%edi
  401a0b:	e8 20 f6 ff ff       	callq  401030 <getenv@plt>
  401a10:	48 85 c0             	test   %rax,%rax
  401a13:	74 1e                	je     401a33 <read_line+0xb0>
  401a15:	bf 00 00 00 00       	mov    $0x0,%edi
  401a1a:	e8 31 f7 ff ff       	callq  401150 <exit@plt>
  401a1f:	bf 3d 33 40 00       	mov    $0x40333d,%edi
  401a24:	e8 37 f6 ff ff       	callq  401060 <puts@plt>
  401a29:	bf 08 00 00 00       	mov    $0x8,%edi
  401a2e:	e8 1d f7 ff ff       	callq  401150 <exit@plt>
  401a33:	48 8b 05 16 3d 00 00 	mov    0x3d16(%rip),%rax        # 405750 <stdin@@GLIBC_2.2.5>
  401a3a:	48 89 05 2f 3d 00 00 	mov    %rax,0x3d2f(%rip)        # 405770 <infile>
  401a41:	b8 00 00 00 00       	mov    $0x0,%eax
  401a46:	e8 8c fe ff ff       	callq  4018d7 <skip>
  401a4b:	48 85 c0             	test   %rax,%rax
  401a4e:	0f 85 42 ff ff ff    	jne    401996 <read_line+0x13>
  401a54:	bf 3d 33 40 00       	mov    $0x40333d,%edi
  401a59:	e8 02 f6 ff ff       	callq  401060 <puts@plt>
  401a5e:	bf 00 00 00 00       	mov    $0x0,%edi
  401a63:	e8 e8 f6 ff ff       	callq  401150 <exit@plt>
  401a68:	bf 66 33 40 00       	mov    $0x403366,%edi
  401a6d:	e8 ee f5 ff ff       	callq  401060 <puts@plt>
  401a72:	8b 05 f4 3c 00 00    	mov    0x3cf4(%rip),%eax        # 40576c <num_input_strings>
  401a78:	8d 50 01             	lea    0x1(%rax),%edx
  401a7b:	89 15 eb 3c 00 00    	mov    %edx,0x3ceb(%rip)        # 40576c <num_input_strings>
  401a81:	48 98                	cltq   
  401a83:	48 6b c0 50          	imul   $0x50,%rax,%rax
  401a87:	48 be 2a 2a 2a 74 72 	movabs $0x636e7572742a2a2a,%rsi
  401a8e:	75 6e 63 
  401a91:	48 bf 61 74 65 64 2a 	movabs $0x2a2a2a64657461,%rdi
  401a98:	2a 2a 00 
  401a9b:	48 89 b0 80 57 40 00 	mov    %rsi,0x405780(%rax)
  401aa2:	48 89 b8 88 57 40 00 	mov    %rdi,0x405788(%rax)
  401aa9:	e8 77 fe ff ff       	callq  401925 <explode_bomb>

0000000000401aae <phase_defused>:
  401aae:	83 3d b7 3c 00 00 06 	cmpl   $0x6,0x3cb7(%rip)        # 40576c <num_input_strings>
  401ab5:	74 01                	je     401ab8 <phase_defused+0xa>
  401ab7:	c3                   	retq   
  401ab8:	55                   	push   %rbp
  401ab9:	48 89 e5             	mov    %rsp,%rbp
  401abc:	48 83 ec 60          	sub    $0x60,%rsp
  401ac0:	4c 8d 45 b0          	lea    -0x50(%rbp),%r8
  401ac4:	48 8d 4d a8          	lea    -0x58(%rbp),%rcx
  401ac8:	48 8d 55 ac          	lea    -0x54(%rbp),%rdx
  401acc:	be 81 33 40 00       	mov    $0x403381,%esi
  401ad1:	bf 70 58 40 00       	mov    $0x405870,%edi
  401ad6:	b8 00 00 00 00       	mov    $0x0,%eax
  401adb:	e8 30 f6 ff ff       	callq  401110 <__isoc99_sscanf@plt>
  401ae0:	83 f8 03             	cmp    $0x3,%eax
  401ae3:	74 0c                	je     401af1 <phase_defused+0x43>
  401ae5:	bf c0 32 40 00       	mov    $0x4032c0,%edi
  401aea:	e8 71 f5 ff ff       	callq  401060 <puts@plt>
  401aef:	c9                   	leaveq 
  401af0:	c3                   	retq   
  401af1:	be 8a 33 40 00       	mov    $0x40338a,%esi
  401af6:	48 8d 7d b0          	lea    -0x50(%rbp),%rdi
  401afa:	e8 2a fd ff ff       	callq  401829 <strings_not_equal>
  401aff:	85 c0                	test   %eax,%eax
  401b01:	75 e2                	jne    401ae5 <phase_defused+0x37>
  401b03:	bf 60 32 40 00       	mov    $0x403260,%edi
  401b08:	e8 53 f5 ff ff       	callq  401060 <puts@plt>
  401b0d:	bf 88 32 40 00       	mov    $0x403288,%edi
  401b12:	e8 49 f5 ff ff       	callq  401060 <puts@plt>
  401b17:	b8 00 00 00 00       	mov    $0x0,%eax
  401b1c:	e8 22 fc ff ff       	callq  401743 <secret_phase>
  401b21:	eb c2                	jmp    401ae5 <phase_defused+0x37>

0000000000401b23 <rio_readinitb>:
  401b23:	89 37                	mov    %esi,(%rdi)
  401b25:	c7 47 04 00 00 00 00 	movl   $0x0,0x4(%rdi)
  401b2c:	48 8d 47 10          	lea    0x10(%rdi),%rax
  401b30:	48 89 47 08          	mov    %rax,0x8(%rdi)
  401b34:	c3                   	retq   

0000000000401b35 <sigalrm_handler>:
  401b35:	55                   	push   %rbp
  401b36:	48 89 e5             	mov    %rsp,%rbp
  401b39:	b9 00 00 00 00       	mov    $0x0,%ecx
  401b3e:	ba e0 33 40 00       	mov    $0x4033e0,%edx
  401b43:	be 01 00 00 00       	mov    $0x1,%esi
  401b48:	48 8b 3d 11 3c 00 00 	mov    0x3c11(%rip),%rdi        # 405760 <stderr@@GLIBC_2.2.5>
  401b4f:	b8 00 00 00 00       	mov    $0x0,%eax
  401b54:	e8 17 f6 ff ff       	callq  401170 <__fprintf_chk@plt>
  401b59:	bf 01 00 00 00       	mov    $0x1,%edi
  401b5e:	e8 ed f5 ff ff       	callq  401150 <exit@plt>

0000000000401b63 <__bswap_16>:
  401b63:	89 f8                	mov    %edi,%eax
  401b65:	66 c1 c0 08          	rol    $0x8,%ax
  401b69:	c3                   	retq   

0000000000401b6a <rio_writen>:
  401b6a:	55                   	push   %rbp
  401b6b:	48 89 e5             	mov    %rsp,%rbp
  401b6e:	41 56                	push   %r14
  401b70:	41 55                	push   %r13
  401b72:	41 54                	push   %r12
  401b74:	53                   	push   %rbx
  401b75:	41 89 fd             	mov    %edi,%r13d
  401b78:	49 89 f4             	mov    %rsi,%r12
  401b7b:	49 89 d6             	mov    %rdx,%r14
  401b7e:	48 89 d3             	mov    %rdx,%rbx
  401b81:	eb 06                	jmp    401b89 <rio_writen+0x1f>
  401b83:	48 29 c3             	sub    %rax,%rbx
  401b86:	49 01 c4             	add    %rax,%r12
  401b89:	48 85 db             	test   %rbx,%rbx
  401b8c:	74 24                	je     401bb2 <rio_writen+0x48>
  401b8e:	48 89 da             	mov    %rbx,%rdx
  401b91:	4c 89 e6             	mov    %r12,%rsi
  401b94:	44 89 ef             	mov    %r13d,%edi
  401b97:	e8 d4 f4 ff ff       	callq  401070 <write@plt>
  401b9c:	48 85 c0             	test   %rax,%rax
  401b9f:	7f e2                	jg     401b83 <rio_writen+0x19>
  401ba1:	e8 9a f4 ff ff       	callq  401040 <__errno_location@plt>
  401ba6:	83 38 04             	cmpl   $0x4,(%rax)
  401ba9:	75 13                	jne    401bbe <rio_writen+0x54>
  401bab:	b8 00 00 00 00       	mov    $0x0,%eax
  401bb0:	eb d1                	jmp    401b83 <rio_writen+0x19>
  401bb2:	4c 89 f0             	mov    %r14,%rax
  401bb5:	5b                   	pop    %rbx
  401bb6:	41 5c                	pop    %r12
  401bb8:	41 5d                	pop    %r13
  401bba:	41 5e                	pop    %r14
  401bbc:	5d                   	pop    %rbp
  401bbd:	c3                   	retq   
  401bbe:	48 c7 c0 ff ff ff ff 	mov    $0xffffffffffffffff,%rax
  401bc5:	eb ee                	jmp    401bb5 <rio_writen+0x4b>

0000000000401bc7 <urlencode>:
  401bc7:	55                   	push   %rbp
  401bc8:	48 89 e5             	mov    %rsp,%rbp
  401bcb:	41 55                	push   %r13
  401bcd:	41 54                	push   %r12
  401bcf:	53                   	push   %rbx
  401bd0:	48 83 ec 18          	sub    $0x18,%rsp
  401bd4:	48 89 fb             	mov    %rdi,%rbx
  401bd7:	49 89 f4             	mov    %rsi,%r12
  401bda:	48 c7 c1 ff ff ff ff 	mov    $0xffffffffffffffff,%rcx
  401be1:	b8 00 00 00 00       	mov    $0x0,%eax
  401be6:	f2 ae                	repnz scas %es:(%rdi),%al
  401be8:	48 f7 d1             	not    %rcx
  401beb:	8d 41 ff             	lea    -0x1(%rcx),%eax
  401bee:	eb 10                	jmp    401c00 <urlencode+0x39>
  401bf0:	45 88 04 24          	mov    %r8b,(%r12)
  401bf4:	4d 8d 64 24 01       	lea    0x1(%r12),%r12
  401bf9:	48 83 c3 01          	add    $0x1,%rbx
  401bfd:	44 89 e8             	mov    %r13d,%eax
  401c00:	44 8d 68 ff          	lea    -0x1(%rax),%r13d
  401c04:	85 c0                	test   %eax,%eax
  401c06:	0f 84 ad 00 00 00    	je     401cb9 <urlencode+0xf2>
  401c0c:	44 0f b6 03          	movzbl (%rbx),%r8d
  401c10:	41 80 f8 2a          	cmp    $0x2a,%r8b
  401c14:	0f 94 c2             	sete   %dl
  401c17:	41 80 f8 2d          	cmp    $0x2d,%r8b
  401c1b:	0f 94 c0             	sete   %al
  401c1e:	08 c2                	or     %al,%dl
  401c20:	75 ce                	jne    401bf0 <urlencode+0x29>
  401c22:	41 80 f8 2e          	cmp    $0x2e,%r8b
  401c26:	74 c8                	je     401bf0 <urlencode+0x29>
  401c28:	41 80 f8 5f          	cmp    $0x5f,%r8b
  401c2c:	74 c2                	je     401bf0 <urlencode+0x29>
  401c2e:	41 8d 40 d0          	lea    -0x30(%r8),%eax
  401c32:	3c 09                	cmp    $0x9,%al
  401c34:	76 ba                	jbe    401bf0 <urlencode+0x29>
  401c36:	41 8d 40 bf          	lea    -0x41(%r8),%eax
  401c3a:	3c 19                	cmp    $0x19,%al
  401c3c:	76 b2                	jbe    401bf0 <urlencode+0x29>
  401c3e:	41 8d 40 9f          	lea    -0x61(%r8),%eax
  401c42:	3c 19                	cmp    $0x19,%al
  401c44:	76 aa                	jbe    401bf0 <urlencode+0x29>
  401c46:	41 80 f8 20          	cmp    $0x20,%r8b
  401c4a:	74 59                	je     401ca5 <urlencode+0xde>
  401c4c:	41 8d 40 e0          	lea    -0x20(%r8),%eax
  401c50:	3c 5f                	cmp    $0x5f,%al
  401c52:	0f 96 c2             	setbe  %dl
  401c55:	41 80 f8 09          	cmp    $0x9,%r8b
  401c59:	0f 94 c0             	sete   %al
  401c5c:	08 c2                	or     %al,%dl
  401c5e:	74 54                	je     401cb4 <urlencode+0xed>
  401c60:	45 0f b6 c0          	movzbl %r8b,%r8d
  401c64:	b9 ae 34 40 00       	mov    $0x4034ae,%ecx
  401c69:	ba 08 00 00 00       	mov    $0x8,%edx
  401c6e:	be 01 00 00 00       	mov    $0x1,%esi
  401c73:	48 8d 7d d8          	lea    -0x28(%rbp),%rdi
  401c77:	b8 00 00 00 00       	mov    $0x0,%eax
  401c7c:	e8 1f f5 ff ff       	callq  4011a0 <__sprintf_chk@plt>
  401c81:	0f b6 45 d8          	movzbl -0x28(%rbp),%eax
  401c85:	41 88 04 24          	mov    %al,(%r12)
  401c89:	0f b6 45 d9          	movzbl -0x27(%rbp),%eax
  401c8d:	41 88 44 24 01       	mov    %al,0x1(%r12)
  401c92:	0f b6 45 da          	movzbl -0x26(%rbp),%eax
  401c96:	41 88 44 24 02       	mov    %al,0x2(%r12)
  401c9b:	4d 8d 64 24 03       	lea    0x3(%r12),%r12
  401ca0:	e9 54 ff ff ff       	jmpq   401bf9 <urlencode+0x32>
  401ca5:	41 c6 04 24 2b       	movb   $0x2b,(%r12)
  401caa:	4d 8d 64 24 01       	lea    0x1(%r12),%r12
  401caf:	e9 45 ff ff ff       	jmpq   401bf9 <urlencode+0x32>
  401cb4:	b8 ff ff ff ff       	mov    $0xffffffff,%eax
  401cb9:	48 83 c4 18          	add    $0x18,%rsp
  401cbd:	5b                   	pop    %rbx
  401cbe:	41 5c                	pop    %r12
  401cc0:	41 5d                	pop    %r13
  401cc2:	5d                   	pop    %rbp
  401cc3:	c3                   	retq   

0000000000401cc4 <rio_read>:
  401cc4:	55                   	push   %rbp
  401cc5:	48 89 e5             	mov    %rsp,%rbp
  401cc8:	41 56                	push   %r14
  401cca:	41 55                	push   %r13
  401ccc:	41 54                	push   %r12
  401cce:	53                   	push   %rbx
  401ccf:	48 89 fb             	mov    %rdi,%rbx
  401cd2:	49 89 f6             	mov    %rsi,%r14
  401cd5:	49 89 d5             	mov    %rdx,%r13
  401cd8:	eb 17                	jmp    401cf1 <rio_read+0x2d>
  401cda:	e8 61 f3 ff ff       	callq  401040 <__errno_location@plt>
  401cdf:	83 38 04             	cmpl   $0x4,(%rax)
  401ce2:	74 0d                	je     401cf1 <rio_read+0x2d>
  401ce4:	48 c7 c0 ff ff ff ff 	mov    $0xffffffffffffffff,%rax
  401ceb:	eb 58                	jmp    401d45 <rio_read+0x81>
  401ced:	4c 89 63 08          	mov    %r12,0x8(%rbx)
  401cf1:	44 8b 63 04          	mov    0x4(%rbx),%r12d
  401cf5:	45 85 e4             	test   %r12d,%r12d
  401cf8:	7f 23                	jg     401d1d <rio_read+0x59>
  401cfa:	4c 8d 63 10          	lea    0x10(%rbx),%r12
  401cfe:	8b 3b                	mov    (%rbx),%edi
  401d00:	ba 00 20 00 00       	mov    $0x2000,%edx
  401d05:	4c 89 e6             	mov    %r12,%rsi
  401d08:	e8 93 f3 ff ff       	callq  4010a0 <read@plt>
  401d0d:	89 43 04             	mov    %eax,0x4(%rbx)
  401d10:	85 c0                	test   %eax,%eax
  401d12:	78 c6                	js     401cda <rio_read+0x16>
  401d14:	75 d7                	jne    401ced <rio_read+0x29>
  401d16:	b8 00 00 00 00       	mov    $0x0,%eax
  401d1b:	eb 28                	jmp    401d45 <rio_read+0x81>
  401d1d:	49 63 c4             	movslq %r12d,%rax
  401d20:	4c 39 e8             	cmp    %r13,%rax
  401d23:	72 03                	jb     401d28 <rio_read+0x64>
  401d25:	45 89 ec             	mov    %r13d,%r12d
  401d28:	4d 63 ec             	movslq %r12d,%r13
  401d2b:	48 8b 73 08          	mov    0x8(%rbx),%rsi
  401d2f:	4c 89 ea             	mov    %r13,%rdx
  401d32:	4c 89 f7             	mov    %r14,%rdi
  401d35:	e8 b6 f3 ff ff       	callq  4010f0 <memcpy@plt>
  401d3a:	4c 01 6b 08          	add    %r13,0x8(%rbx)
  401d3e:	44 29 63 04          	sub    %r12d,0x4(%rbx)
  401d42:	4c 89 e8             	mov    %r13,%rax
  401d45:	5b                   	pop    %rbx
  401d46:	41 5c                	pop    %r12
  401d48:	41 5d                	pop    %r13
  401d4a:	41 5e                	pop    %r14
  401d4c:	5d                   	pop    %rbp
  401d4d:	c3                   	retq   

0000000000401d4e <rio_readlineb>:
  401d4e:	55                   	push   %rbp
  401d4f:	48 89 e5             	mov    %rsp,%rbp
  401d52:	41 56                	push   %r14
  401d54:	41 55                	push   %r13
  401d56:	41 54                	push   %r12
  401d58:	53                   	push   %rbx
  401d59:	48 83 ec 10          	sub    $0x10,%rsp
  401d5d:	49 89 fe             	mov    %rdi,%r14
  401d60:	49 89 f4             	mov    %rsi,%r12
  401d63:	49 89 d5             	mov    %rdx,%r13
  401d66:	bb 01 00 00 00       	mov    $0x1,%ebx
  401d6b:	eb 16                	jmp    401d83 <rio_readlineb+0x35>
  401d6d:	85 c0                	test   %eax,%eax
  401d6f:	75 59                	jne    401dca <rio_readlineb+0x7c>
  401d71:	83 fb 01             	cmp    $0x1,%ebx
  401d74:	75 3f                	jne    401db5 <rio_readlineb+0x67>
  401d76:	b8 00 00 00 00       	mov    $0x0,%eax
  401d7b:	eb 40                	jmp    401dbd <rio_readlineb+0x6f>
  401d7d:	83 c3 01             	add    $0x1,%ebx
  401d80:	49 89 d4             	mov    %rdx,%r12
  401d83:	48 63 c3             	movslq %ebx,%rax
  401d86:	4c 39 e8             	cmp    %r13,%rax
  401d89:	73 2a                	jae    401db5 <rio_readlineb+0x67>
  401d8b:	ba 01 00 00 00       	mov    $0x1,%edx
  401d90:	48 8d 75 df          	lea    -0x21(%rbp),%rsi
  401d94:	4c 89 f7             	mov    %r14,%rdi
  401d97:	e8 28 ff ff ff       	callq  401cc4 <rio_read>
  401d9c:	83 f8 01             	cmp    $0x1,%eax
  401d9f:	75 cc                	jne    401d6d <rio_readlineb+0x1f>
  401da1:	49 8d 54 24 01       	lea    0x1(%r12),%rdx
  401da6:	0f b6 45 df          	movzbl -0x21(%rbp),%eax
  401daa:	41 88 04 24          	mov    %al,(%r12)
  401dae:	3c 0a                	cmp    $0xa,%al
  401db0:	75 cb                	jne    401d7d <rio_readlineb+0x2f>
  401db2:	49 89 d4             	mov    %rdx,%r12
  401db5:	41 c6 04 24 00       	movb   $0x0,(%r12)
  401dba:	48 63 c3             	movslq %ebx,%rax
  401dbd:	48 83 c4 10          	add    $0x10,%rsp
  401dc1:	5b                   	pop    %rbx
  401dc2:	41 5c                	pop    %r12
  401dc4:	41 5d                	pop    %r13
  401dc6:	41 5e                	pop    %r14
  401dc8:	5d                   	pop    %rbp
  401dc9:	c3                   	retq   
  401dca:	48 c7 c0 ff ff ff ff 	mov    $0xffffffffffffffff,%rax
  401dd1:	eb ea                	jmp    401dbd <rio_readlineb+0x6f>

0000000000401dd3 <submitr>:
  401dd3:	55                   	push   %rbp
  401dd4:	48 89 e5             	mov    %rsp,%rbp
  401dd7:	41 57                	push   %r15
  401dd9:	41 56                	push   %r14
  401ddb:	41 55                	push   %r13
  401ddd:	41 54                	push   %r12
  401ddf:	53                   	push   %rbx
  401de0:	4c 8d 9c 24 00 60 ff 	lea    -0xa000(%rsp),%r11
  401de7:	ff 
  401de8:	48 81 ec 00 10 00 00 	sub    $0x1000,%rsp
  401def:	48 83 0c 24 00       	orq    $0x0,(%rsp)
  401df4:	4c 39 dc             	cmp    %r11,%rsp
  401df7:	75 ef                	jne    401de8 <submitr+0x15>
  401df9:	48 83 ec 58          	sub    $0x58,%rsp
  401dfd:	48 89 bd 90 5f ff ff 	mov    %rdi,-0xa070(%rbp)
  401e04:	89 b5 8c 5f ff ff    	mov    %esi,-0xa074(%rbp)
  401e0a:	48 89 95 98 5f ff ff 	mov    %rdx,-0xa068(%rbp)
  401e11:	49 89 cd             	mov    %rcx,%r13
  401e14:	4d 89 c4             	mov    %r8,%r12
  401e17:	4d 89 cf             	mov    %r9,%r15
  401e1a:	4c 8b 75 10          	mov    0x10(%rbp),%r14
  401e1e:	c7 85 ac 7f ff ff 00 	movl   $0x0,-0x8054(%rbp)
  401e25:	00 00 00 
  401e28:	ba 00 00 00 00       	mov    $0x0,%edx
  401e2d:	be 01 00 00 00       	mov    $0x1,%esi
  401e32:	bf 02 00 00 00       	mov    $0x2,%edi
  401e37:	e8 74 f3 ff ff       	callq  4011b0 <socket@plt>
  401e3c:	85 c0                	test   %eax,%eax
  401e3e:	0f 88 77 02 00 00    	js     4020bb <submitr+0x2e8>
  401e44:	89 c3                	mov    %eax,%ebx
  401e46:	48 8b bd 90 5f ff ff 	mov    -0xa070(%rbp),%rdi
  401e4d:	e8 7e f2 ff ff       	callq  4010d0 <gethostbyname@plt>
  401e52:	48 85 c0             	test   %rax,%rax
  401e55:	0f 84 b0 02 00 00    	je     40210b <submitr+0x338>
  401e5b:	48 c7 45 c0 00 00 00 	movq   $0x0,-0x40(%rbp)
  401e62:	00 
  401e63:	48 c7 45 c8 00 00 00 	movq   $0x0,-0x38(%rbp)
  401e6a:	00 
  401e6b:	66 c7 45 c0 02 00    	movw   $0x2,-0x40(%rbp)
  401e71:	48 63 50 14          	movslq 0x14(%rax),%rdx
  401e75:	48 8b 40 18          	mov    0x18(%rax),%rax
  401e79:	48 8b 30             	mov    (%rax),%rsi
  401e7c:	b9 0c 00 00 00       	mov    $0xc,%ecx
  401e81:	48 8d 7d c4          	lea    -0x3c(%rbp),%rdi
  401e85:	e8 56 f2 ff ff       	callq  4010e0 <__memmove_chk@plt>
  401e8a:	0f b7 bd 8c 5f ff ff 	movzwl -0xa074(%rbp),%edi
  401e91:	e8 cd fc ff ff       	callq  401b63 <__bswap_16>
  401e96:	66 89 45 c2          	mov    %ax,-0x3e(%rbp)
  401e9a:	ba 10 00 00 00       	mov    $0x10,%edx
  401e9f:	48 8d 75 c0          	lea    -0x40(%rbp),%rsi
  401ea3:	89 df                	mov    %ebx,%edi
  401ea5:	e8 b6 f2 ff ff       	callq  401160 <connect@plt>
  401eaa:	85 c0                	test   %eax,%eax
  401eac:	0f 88 c3 02 00 00    	js     402175 <submitr+0x3a2>
  401eb2:	48 c7 c6 ff ff ff ff 	mov    $0xffffffffffffffff,%rsi
  401eb9:	b8 00 00 00 00       	mov    $0x0,%eax
  401ebe:	48 89 f1             	mov    %rsi,%rcx
  401ec1:	4c 89 ff             	mov    %r15,%rdi
  401ec4:	f2 ae                	repnz scas %es:(%rdi),%al
  401ec6:	48 89 ca             	mov    %rcx,%rdx
  401ec9:	48 f7 d2             	not    %rdx
  401ecc:	48 89 f1             	mov    %rsi,%rcx
  401ecf:	48 8b bd 98 5f ff ff 	mov    -0xa068(%rbp),%rdi
  401ed6:	f2 ae                	repnz scas %es:(%rdi),%al
  401ed8:	48 f7 d1             	not    %rcx
  401edb:	49 89 c8             	mov    %rcx,%r8
  401ede:	48 89 f1             	mov    %rsi,%rcx
  401ee1:	4c 89 ef             	mov    %r13,%rdi
  401ee4:	f2 ae                	repnz scas %es:(%rdi),%al
  401ee6:	48 f7 d1             	not    %rcx
  401ee9:	4d 8d 44 08 fe       	lea    -0x2(%r8,%rcx,1),%r8
  401eee:	48 89 f1             	mov    %rsi,%rcx
  401ef1:	4c 89 e7             	mov    %r12,%rdi
  401ef4:	f2 ae                	repnz scas %es:(%rdi),%al
  401ef6:	48 89 c8             	mov    %rcx,%rax
  401ef9:	48 f7 d0             	not    %rax
  401efc:	49 8d 4c 00 ff       	lea    -0x1(%r8,%rax,1),%rcx
  401f01:	48 8d 44 52 fd       	lea    -0x3(%rdx,%rdx,2),%rax
  401f06:	48 8d 84 01 80 00 00 	lea    0x80(%rcx,%rax,1),%rax
  401f0d:	00 
  401f0e:	48 3d 00 20 00 00    	cmp    $0x2000,%rax
  401f14:	0f 87 b7 02 00 00    	ja     4021d1 <submitr+0x3fe>
  401f1a:	48 8d b5 b0 9f ff ff 	lea    -0x6050(%rbp),%rsi
  401f21:	b9 00 04 00 00       	mov    $0x400,%ecx
  401f26:	b8 00 00 00 00       	mov    $0x0,%eax
  401f2b:	48 89 f7             	mov    %rsi,%rdi
  401f2e:	f3 48 ab             	rep stos %rax,%es:(%rdi)
  401f31:	4c 89 ff             	mov    %r15,%rdi
  401f34:	e8 8e fc ff ff       	callq  401bc7 <urlencode>
  401f39:	85 c0                	test   %eax,%eax
  401f3b:	0f 88 02 03 00 00    	js     402243 <submitr+0x470>
  401f41:	4c 8d bd b0 bf ff ff 	lea    -0x4050(%rbp),%r15
  401f48:	48 8d 85 b0 9f ff ff 	lea    -0x6050(%rbp),%rax
  401f4f:	50                   	push   %rax
  401f50:	41 54                	push   %r12
  401f52:	4d 89 e9             	mov    %r13,%r9
  401f55:	4c 8b 85 98 5f ff ff 	mov    -0xa068(%rbp),%r8
  401f5c:	b9 08 34 40 00       	mov    $0x403408,%ecx
  401f61:	ba 00 20 00 00       	mov    $0x2000,%edx
  401f66:	be 01 00 00 00       	mov    $0x1,%esi
  401f6b:	4c 89 ff             	mov    %r15,%rdi
  401f6e:	b8 00 00 00 00       	mov    $0x0,%eax
  401f73:	e8 28 f2 ff ff       	callq  4011a0 <__sprintf_chk@plt>
  401f78:	48 c7 c1 ff ff ff ff 	mov    $0xffffffffffffffff,%rcx
  401f7f:	b8 00 00 00 00       	mov    $0x0,%eax
  401f84:	4c 89 ff             	mov    %r15,%rdi
  401f87:	f2 ae                	repnz scas %es:(%rdi),%al
  401f89:	48 f7 d1             	not    %rcx
  401f8c:	48 8d 51 ff          	lea    -0x1(%rcx),%rdx
  401f90:	4c 89 fe             	mov    %r15,%rsi
  401f93:	89 df                	mov    %ebx,%edi
  401f95:	e8 d0 fb ff ff       	callq  401b6a <rio_writen>
  401f9a:	48 83 c4 10          	add    $0x10,%rsp
  401f9e:	48 85 c0             	test   %rax,%rax
  401fa1:	0f 88 28 03 00 00    	js     4022cf <submitr+0x4fc>
  401fa7:	89 de                	mov    %ebx,%esi
  401fa9:	48 8d bd b0 df ff ff 	lea    -0x2050(%rbp),%rdi
  401fb0:	e8 6e fb ff ff       	callq  401b23 <rio_readinitb>
  401fb5:	ba 00 20 00 00       	mov    $0x2000,%edx
  401fba:	48 8d b5 b0 bf ff ff 	lea    -0x4050(%rbp),%rsi
  401fc1:	48 8d bd b0 df ff ff 	lea    -0x2050(%rbp),%rdi
  401fc8:	e8 81 fd ff ff       	callq  401d4e <rio_readlineb>
  401fcd:	48 85 c0             	test   %rax,%rax
  401fd0:	0f 8e 57 03 00 00    	jle    40232d <submitr+0x55a>
  401fd6:	4c 8d 85 a0 5f ff ff 	lea    -0xa060(%rbp),%r8
  401fdd:	48 8d 8d ac 7f ff ff 	lea    -0x8054(%rbp),%rcx
  401fe4:	48 8d 95 b0 7f ff ff 	lea    -0x8050(%rbp),%rdx
  401feb:	be b5 34 40 00       	mov    $0x4034b5,%esi
  401ff0:	48 8d bd b0 bf ff ff 	lea    -0x4050(%rbp),%rdi
  401ff7:	b8 00 00 00 00       	mov    $0x0,%eax
  401ffc:	e8 0f f1 ff ff       	callq  401110 <__isoc99_sscanf@plt>
  402001:	44 8b 85 ac 7f ff ff 	mov    -0x8054(%rbp),%r8d
  402008:	41 81 f8 c8 00 00 00 	cmp    $0xc8,%r8d
  40200f:	0f 85 8b 03 00 00    	jne    4023a0 <submitr+0x5cd>
  402015:	48 8d b5 b0 bf ff ff 	lea    -0x4050(%rbp),%rsi
  40201c:	bf c6 34 40 00       	mov    $0x4034c6,%edi
  402021:	b9 03 00 00 00       	mov    $0x3,%ecx
  402026:	f3 a6                	repz cmpsb %es:(%rdi),%ds:(%rsi)
  402028:	0f 97 c0             	seta   %al
  40202b:	1c 00                	sbb    $0x0,%al
  40202d:	84 c0                	test   %al,%al
  40202f:	0f 84 9e 03 00 00    	je     4023d3 <submitr+0x600>
  402035:	ba 00 20 00 00       	mov    $0x2000,%edx
  40203a:	48 8d b5 b0 bf ff ff 	lea    -0x4050(%rbp),%rsi
  402041:	48 8d bd b0 df ff ff 	lea    -0x2050(%rbp),%rdi
  402048:	e8 01 fd ff ff       	callq  401d4e <rio_readlineb>
  40204d:	48 85 c0             	test   %rax,%rax
  402050:	7f c3                	jg     402015 <submitr+0x242>
  402052:	48 b8 45 72 72 6f 72 	movabs $0x43203a726f727245,%rax
  402059:	3a 20 43 
  40205c:	48 ba 6c 69 65 6e 74 	movabs $0x6e7520746e65696c,%rdx
  402063:	20 75 6e 
  402066:	49 89 06             	mov    %rax,(%r14)
  402069:	49 89 56 08          	mov    %rdx,0x8(%r14)
  40206d:	48 b8 61 62 6c 65 20 	movabs $0x206f7420656c6261,%rax
  402074:	74 6f 20 
  402077:	48 ba 72 65 61 64 20 	movabs $0x6165682064616572,%rdx
  40207e:	68 65 61 
  402081:	49 89 46 10          	mov    %rax,0x10(%r14)
  402085:	49 89 56 18          	mov    %rdx,0x18(%r14)
  402089:	48 b8 64 65 72 73 20 	movabs $0x6f72662073726564,%rax
  402090:	66 72 6f 
  402093:	48 ba 6d 20 73 65 72 	movabs $0x726576726573206d,%rdx
  40209a:	76 65 72 
  40209d:	49 89 46 20          	mov    %rax,0x20(%r14)
  4020a1:	49 89 56 28          	mov    %rdx,0x28(%r14)
  4020a5:	41 c6 46 30 00       	movb   $0x0,0x30(%r14)
  4020aa:	89 df                	mov    %ebx,%edi
  4020ac:	e8 df ef ff ff       	callq  401090 <close@plt>
  4020b1:	b8 ff ff ff ff       	mov    $0xffffffff,%eax
  4020b6:	e9 66 03 00 00       	jmpq   402421 <submitr+0x64e>
  4020bb:	48 b8 45 72 72 6f 72 	movabs $0x43203a726f727245,%rax
  4020c2:	3a 20 43 
  4020c5:	48 ba 6c 69 65 6e 74 	movabs $0x6e7520746e65696c,%rdx
  4020cc:	20 75 6e 
  4020cf:	49 89 06             	mov    %rax,(%r14)
  4020d2:	49 89 56 08          	mov    %rdx,0x8(%r14)
  4020d6:	48 b8 61 62 6c 65 20 	movabs $0x206f7420656c6261,%rax
  4020dd:	74 6f 20 
  4020e0:	48 ba 63 72 65 61 74 	movabs $0x7320657461657263,%rdx
  4020e7:	65 20 73 
  4020ea:	49 89 46 10          	mov    %rax,0x10(%r14)
  4020ee:	49 89 56 18          	mov    %rdx,0x18(%r14)
  4020f2:	41 c7 46 20 6f 63 6b 	movl   $0x656b636f,0x20(%r14)
  4020f9:	65 
  4020fa:	66 41 c7 46 24 74 00 	movw   $0x74,0x24(%r14)
  402101:	b8 ff ff ff ff       	mov    $0xffffffff,%eax
  402106:	e9 16 03 00 00       	jmpq   402421 <submitr+0x64e>
  40210b:	48 b8 45 72 72 6f 72 	movabs $0x44203a726f727245,%rax
  402112:	3a 20 44 
  402115:	48 ba 4e 53 20 69 73 	movabs $0x6e7520736920534e,%rdx
  40211c:	20 75 6e 
  40211f:	49 89 06             	mov    %rax,(%r14)
  402122:	49 89 56 08          	mov    %rdx,0x8(%r14)
  402126:	48 b8 61 62 6c 65 20 	movabs $0x206f7420656c6261,%rax
  40212d:	74 6f 20 
  402130:	48 ba 72 65 73 6f 6c 	movabs $0x2065766c6f736572,%rdx
  402137:	76 65 20 
  40213a:	49 89 46 10          	mov    %rax,0x10(%r14)
  40213e:	49 89 56 18          	mov    %rdx,0x18(%r14)
  402142:	48 b8 73 65 72 76 65 	movabs $0x6120726576726573,%rax
  402149:	72 20 61 
  40214c:	49 89 46 20          	mov    %rax,0x20(%r14)
  402150:	41 c7 46 28 64 64 72 	movl   $0x65726464,0x28(%r14)
  402157:	65 
  402158:	66 41 c7 46 2c 73 73 	movw   $0x7373,0x2c(%r14)
  40215f:	41 c6 46 2e 00       	movb   $0x0,0x2e(%r14)
  402164:	89 df                	mov    %ebx,%edi
  402166:	e8 25 ef ff ff       	callq  401090 <close@plt>
  40216b:	b8 ff ff ff ff       	mov    $0xffffffff,%eax
  402170:	e9 ac 02 00 00       	jmpq   402421 <submitr+0x64e>
  402175:	48 b8 45 72 72 6f 72 	movabs $0x55203a726f727245,%rax
  40217c:	3a 20 55 
  40217f:	48 ba 6e 61 62 6c 65 	movabs $0x6f7420656c62616e,%rdx
  402186:	20 74 6f 
  402189:	49 89 06             	mov    %rax,(%r14)
  40218c:	49 89 56 08          	mov    %rdx,0x8(%r14)
  402190:	48 b8 20 63 6f 6e 6e 	movabs $0x7463656e6e6f6320,%rax
  402197:	65 63 74 
  40219a:	48 ba 20 74 6f 20 74 	movabs $0x20656874206f7420,%rdx
  4021a1:	68 65 20 
  4021a4:	49 89 46 10          	mov    %rax,0x10(%r14)
  4021a8:	49 89 56 18          	mov    %rdx,0x18(%r14)
  4021ac:	41 c7 46 20 73 65 72 	movl   $0x76726573,0x20(%r14)
  4021b3:	76 
  4021b4:	66 41 c7 46 24 65 72 	movw   $0x7265,0x24(%r14)
  4021bb:	41 c6 46 26 00       	movb   $0x0,0x26(%r14)
  4021c0:	89 df                	mov    %ebx,%edi
  4021c2:	e8 c9 ee ff ff       	callq  401090 <close@plt>
  4021c7:	b8 ff ff ff ff       	mov    $0xffffffff,%eax
  4021cc:	e9 50 02 00 00       	jmpq   402421 <submitr+0x64e>
  4021d1:	48 b8 45 72 72 6f 72 	movabs $0x52203a726f727245,%rax
  4021d8:	3a 20 52 
  4021db:	48 ba 65 73 75 6c 74 	movabs $0x747320746c757365,%rdx
  4021e2:	20 73 74 
  4021e5:	49 89 06             	mov    %rax,(%r14)
  4021e8:	49 89 56 08          	mov    %rdx,0x8(%r14)
  4021ec:	48 b8 72 69 6e 67 20 	movabs $0x6f6f7420676e6972,%rax
  4021f3:	74 6f 6f 
  4021f6:	48 ba 20 6c 61 72 67 	movabs $0x202e656772616c20,%rdx
  4021fd:	65 2e 20 
  402200:	49 89 46 10          	mov    %rax,0x10(%r14)
  402204:	49 89 56 18          	mov    %rdx,0x18(%r14)
  402208:	48 b8 49 6e 63 72 65 	movabs $0x6573616572636e49,%rax
  40220f:	61 73 65 
  402212:	48 ba 20 53 55 42 4d 	movabs $0x5254494d42555320,%rdx
  402219:	49 54 52 
  40221c:	49 89 46 20          	mov    %rax,0x20(%r14)
  402220:	49 89 56 28          	mov    %rdx,0x28(%r14)
  402224:	48 b8 5f 4d 41 58 42 	movabs $0x46554258414d5f,%rax
  40222b:	55 46 00 
  40222e:	49 89 46 30          	mov    %rax,0x30(%r14)
  402232:	89 df                	mov    %ebx,%edi
  402234:	e8 57 ee ff ff       	callq  401090 <close@plt>
  402239:	b8 ff ff ff ff       	mov    $0xffffffff,%eax
  40223e:	e9 de 01 00 00       	jmpq   402421 <submitr+0x64e>
  402243:	48 b8 45 72 72 6f 72 	movabs $0x52203a726f727245,%rax
  40224a:	3a 20 52 
  40224d:	48 ba 65 73 75 6c 74 	movabs $0x747320746c757365,%rdx
  402254:	20 73 74 
  402257:	49 89 06             	mov    %rax,(%r14)
  40225a:	49 89 56 08          	mov    %rdx,0x8(%r14)
  40225e:	48 b8 72 69 6e 67 20 	movabs $0x6e6f6320676e6972,%rax
  402265:	63 6f 6e 
  402268:	48 ba 74 61 69 6e 73 	movabs $0x6e6120736e696174,%rdx
  40226f:	20 61 6e 
  402272:	49 89 46 10          	mov    %rax,0x10(%r14)
  402276:	49 89 56 18          	mov    %rdx,0x18(%r14)
  40227a:	48 b8 20 69 6c 6c 65 	movabs $0x6c6167656c6c6920,%rax
  402281:	67 61 6c 
  402284:	48 ba 20 6f 72 20 75 	movabs $0x72706e7520726f20,%rdx
  40228b:	6e 70 72 
  40228e:	49 89 46 20          	mov    %rax,0x20(%r14)
  402292:	49 89 56 28          	mov    %rdx,0x28(%r14)
  402296:	48 b8 69 6e 74 61 62 	movabs $0x20656c6261746e69,%rax
  40229d:	6c 65 20 
  4022a0:	48 ba 63 68 61 72 61 	movabs $0x6574636172616863,%rdx
  4022a7:	63 74 65 
  4022aa:	49 89 46 30          	mov    %rax,0x30(%r14)
  4022ae:	49 89 56 38          	mov    %rdx,0x38(%r14)
  4022b2:	66 41 c7 46 40 72 2e 	movw   $0x2e72,0x40(%r14)
  4022b9:	41 c6 46 42 00       	movb   $0x0,0x42(%r14)
  4022be:	89 df                	mov    %ebx,%edi
  4022c0:	e8 cb ed ff ff       	callq  401090 <close@plt>
  4022c5:	b8 ff ff ff ff       	mov    $0xffffffff,%eax
  4022ca:	e9 52 01 00 00       	jmpq   402421 <submitr+0x64e>
  4022cf:	48 b8 45 72 72 6f 72 	movabs $0x43203a726f727245,%rax
  4022d6:	3a 20 43 
  4022d9:	48 ba 6c 69 65 6e 74 	movabs $0x6e7520746e65696c,%rdx
  4022e0:	20 75 6e 
  4022e3:	49 89 06             	mov    %rax,(%r14)
  4022e6:	49 89 56 08          	mov    %rdx,0x8(%r14)
  4022ea:	48 b8 61 62 6c 65 20 	movabs $0x206f7420656c6261,%rax
  4022f1:	74 6f 20 
  4022f4:	48 ba 77 72 69 74 65 	movabs $0x6f74206574697277,%rdx
  4022fb:	20 74 6f 
  4022fe:	49 89 46 10          	mov    %rax,0x10(%r14)
  402302:	49 89 56 18          	mov    %rdx,0x18(%r14)
  402306:	48 b8 20 74 68 65 20 	movabs $0x7265732065687420,%rax
  40230d:	73 65 72 
  402310:	49 89 46 20          	mov    %rax,0x20(%r14)
  402314:	41 c7 46 28 76 65 72 	movl   $0x726576,0x28(%r14)
  40231b:	00 
  40231c:	89 df                	mov    %ebx,%edi
  40231e:	e8 6d ed ff ff       	callq  401090 <close@plt>
  402323:	b8 ff ff ff ff       	mov    $0xffffffff,%eax
  402328:	e9 f4 00 00 00       	jmpq   402421 <submitr+0x64e>
  40232d:	48 b8 45 72 72 6f 72 	movabs $0x43203a726f727245,%rax
  402334:	3a 20 43 
  402337:	48 ba 6c 69 65 6e 74 	movabs $0x6e7520746e65696c,%rdx
  40233e:	20 75 6e 
  402341:	49 89 06             	mov    %rax,(%r14)
  402344:	49 89 56 08          	mov    %rdx,0x8(%r14)
  402348:	48 b8 61 62 6c 65 20 	movabs $0x206f7420656c6261,%rax
  40234f:	74 6f 20 
  402352:	48 ba 72 65 61 64 20 	movabs $0x7269662064616572,%rdx
  402359:	66 69 72 
  40235c:	49 89 46 10          	mov    %rax,0x10(%r14)
  402360:	49 89 56 18          	mov    %rdx,0x18(%r14)
  402364:	48 b8 73 74 20 68 65 	movabs $0x6564616568207473,%rax
  40236b:	61 64 65 
  40236e:	48 ba 72 20 66 72 6f 	movabs $0x73206d6f72662072,%rdx
  402375:	6d 20 73 
  402378:	49 89 46 20          	mov    %rax,0x20(%r14)
  40237c:	49 89 56 28          	mov    %rdx,0x28(%r14)
  402380:	41 c7 46 30 65 72 76 	movl   $0x65767265,0x30(%r14)
  402387:	65 
  402388:	66 41 c7 46 34 72 00 	movw   $0x72,0x34(%r14)
  40238f:	89 df                	mov    %ebx,%edi
  402391:	e8 fa ec ff ff       	callq  401090 <close@plt>
  402396:	b8 ff ff ff ff       	mov    $0xffffffff,%eax
  40239b:	e9 81 00 00 00       	jmpq   402421 <submitr+0x64e>
  4023a0:	4c 8d 8d a0 5f ff ff 	lea    -0xa060(%rbp),%r9
  4023a7:	b9 58 34 40 00       	mov    $0x403458,%ecx
  4023ac:	48 c7 c2 ff ff ff ff 	mov    $0xffffffffffffffff,%rdx
  4023b3:	be 01 00 00 00       	mov    $0x1,%esi
  4023b8:	4c 89 f7             	mov    %r14,%rdi
  4023bb:	b8 00 00 00 00       	mov    $0x0,%eax
  4023c0:	e8 db ed ff ff       	callq  4011a0 <__sprintf_chk@plt>
  4023c5:	89 df                	mov    %ebx,%edi
  4023c7:	e8 c4 ec ff ff       	callq  401090 <close@plt>
  4023cc:	b8 ff ff ff ff       	mov    $0xffffffff,%eax
  4023d1:	eb 4e                	jmp    402421 <submitr+0x64e>
  4023d3:	ba 00 20 00 00       	mov    $0x2000,%edx
  4023d8:	48 8d b5 b0 bf ff ff 	lea    -0x4050(%rbp),%rsi
  4023df:	48 8d bd b0 df ff ff 	lea    -0x2050(%rbp),%rdi
  4023e6:	e8 63 f9 ff ff       	callq  401d4e <rio_readlineb>
  4023eb:	48 85 c0             	test   %rax,%rax
  4023ee:	7e 40                	jle    402430 <submitr+0x65d>
  4023f0:	48 8d b5 b0 bf ff ff 	lea    -0x4050(%rbp),%rsi
  4023f7:	4c 89 f7             	mov    %r14,%rdi
  4023fa:	e8 51 ec ff ff       	callq  401050 <strcpy@plt>
  4023ff:	89 df                	mov    %ebx,%edi
  402401:	e8 8a ec ff ff       	callq  401090 <close@plt>
  402406:	bf c9 34 40 00       	mov    $0x4034c9,%edi
  40240b:	b9 03 00 00 00       	mov    $0x3,%ecx
  402410:	4c 89 f6             	mov    %r14,%rsi
  402413:	f3 a6                	repz cmpsb %es:(%rdi),%ds:(%rsi)
  402415:	0f 97 c0             	seta   %al
  402418:	1c 00                	sbb    $0x0,%al
  40241a:	0f be c0             	movsbl %al,%eax
  40241d:	85 c0                	test   %eax,%eax
  40241f:	75 7e                	jne    40249f <submitr+0x6cc>
  402421:	48 8d 65 d8          	lea    -0x28(%rbp),%rsp
  402425:	5b                   	pop    %rbx
  402426:	41 5c                	pop    %r12
  402428:	41 5d                	pop    %r13
  40242a:	41 5e                	pop    %r14
  40242c:	41 5f                	pop    %r15
  40242e:	5d                   	pop    %rbp
  40242f:	c3                   	retq   
  402430:	48 b8 45 72 72 6f 72 	movabs $0x43203a726f727245,%rax
  402437:	3a 20 43 
  40243a:	48 ba 6c 69 65 6e 74 	movabs $0x6e7520746e65696c,%rdx
  402441:	20 75 6e 
  402444:	49 89 06             	mov    %rax,(%r14)
  402447:	49 89 56 08          	mov    %rdx,0x8(%r14)
  40244b:	48 b8 61 62 6c 65 20 	movabs $0x206f7420656c6261,%rax
  402452:	74 6f 20 
  402455:	48 ba 72 65 61 64 20 	movabs $0x6174732064616572,%rdx
  40245c:	73 74 61 
  40245f:	49 89 46 10          	mov    %rax,0x10(%r14)
  402463:	49 89 56 18          	mov    %rdx,0x18(%r14)
  402467:	48 b8 74 75 73 20 6d 	movabs $0x7373656d20737574,%rax
  40246e:	65 73 73 
  402471:	48 ba 61 67 65 20 66 	movabs $0x6d6f726620656761,%rdx
  402478:	72 6f 6d 
  40247b:	49 89 46 20          	mov    %rax,0x20(%r14)
  40247f:	49 89 56 28          	mov    %rdx,0x28(%r14)
  402483:	48 b8 20 73 65 72 76 	movabs $0x72657672657320,%rax
  40248a:	65 72 00 
  40248d:	49 89 46 30          	mov    %rax,0x30(%r14)
  402491:	89 df                	mov    %ebx,%edi
  402493:	e8 f8 eb ff ff       	callq  401090 <close@plt>
  402498:	b8 ff ff ff ff       	mov    $0xffffffff,%eax
  40249d:	eb 82                	jmp    402421 <submitr+0x64e>
  40249f:	b8 ff ff ff ff       	mov    $0xffffffff,%eax
  4024a4:	e9 78 ff ff ff       	jmpq   402421 <submitr+0x64e>

00000000004024a9 <init_timeout>:
  4024a9:	55                   	push   %rbp
  4024aa:	48 89 e5             	mov    %rsp,%rbp
  4024ad:	53                   	push   %rbx
  4024ae:	48 83 ec 08          	sub    $0x8,%rsp
  4024b2:	85 ff                	test   %edi,%edi
  4024b4:	74 1a                	je     4024d0 <init_timeout+0x27>
  4024b6:	89 fb                	mov    %edi,%ebx
  4024b8:	78 1d                	js     4024d7 <init_timeout+0x2e>
  4024ba:	be 35 1b 40 00       	mov    $0x401b35,%esi
  4024bf:	bf 0e 00 00 00       	mov    $0xe,%edi
  4024c4:	e8 f7 eb ff ff       	callq  4010c0 <signal@plt>
  4024c9:	89 df                	mov    %ebx,%edi
  4024cb:	e8 b0 eb ff ff       	callq  401080 <alarm@plt>
  4024d0:	48 83 c4 08          	add    $0x8,%rsp
  4024d4:	5b                   	pop    %rbx
  4024d5:	5d                   	pop    %rbp
  4024d6:	c3                   	retq   
  4024d7:	bb 00 00 00 00       	mov    $0x0,%ebx
  4024dc:	eb dc                	jmp    4024ba <init_timeout+0x11>

00000000004024de <init_driver>:
  4024de:	55                   	push   %rbp
  4024df:	48 89 e5             	mov    %rsp,%rbp
  4024e2:	41 54                	push   %r12
  4024e4:	53                   	push   %rbx
  4024e5:	48 83 ec 10          	sub    $0x10,%rsp
  4024e9:	49 89 fc             	mov    %rdi,%r12
  4024ec:	be 01 00 00 00       	mov    $0x1,%esi
  4024f1:	bf 0d 00 00 00       	mov    $0xd,%edi
  4024f6:	e8 c5 eb ff ff       	callq  4010c0 <signal@plt>
  4024fb:	be 01 00 00 00       	mov    $0x1,%esi
  402500:	bf 1d 00 00 00       	mov    $0x1d,%edi
  402505:	e8 b6 eb ff ff       	callq  4010c0 <signal@plt>
  40250a:	be 01 00 00 00       	mov    $0x1,%esi
  40250f:	bf 1d 00 00 00       	mov    $0x1d,%edi
  402514:	e8 a7 eb ff ff       	callq  4010c0 <signal@plt>
  402519:	ba 00 00 00 00       	mov    $0x0,%edx
  40251e:	be 01 00 00 00       	mov    $0x1,%esi
  402523:	bf 02 00 00 00       	mov    $0x2,%edi
  402528:	e8 83 ec ff ff       	callq  4011b0 <socket@plt>
  40252d:	85 c0                	test   %eax,%eax
  40252f:	0f 88 8c 00 00 00    	js     4025c1 <init_driver+0xe3>
  402535:	89 c3                	mov    %eax,%ebx
  402537:	bf cc 34 40 00       	mov    $0x4034cc,%edi
  40253c:	e8 8f eb ff ff       	callq  4010d0 <gethostbyname@plt>
  402541:	48 85 c0             	test   %rax,%rax
  402544:	0f 84 ca 00 00 00    	je     402614 <init_driver+0x136>
  40254a:	48 c7 45 e0 00 00 00 	movq   $0x0,-0x20(%rbp)
  402551:	00 
  402552:	48 c7 45 e8 00 00 00 	movq   $0x0,-0x18(%rbp)
  402559:	00 
  40255a:	66 c7 45 e0 02 00    	movw   $0x2,-0x20(%rbp)
  402560:	48 63 50 14          	movslq 0x14(%rax),%rdx
  402564:	48 8b 40 18          	mov    0x18(%rax),%rax
  402568:	48 8b 30             	mov    (%rax),%rsi
  40256b:	b9 0c 00 00 00       	mov    $0xc,%ecx
  402570:	48 8d 7d e4          	lea    -0x1c(%rbp),%rdi
  402574:	e8 67 eb ff ff       	callq  4010e0 <__memmove_chk@plt>
  402579:	bf 6e 3b 00 00       	mov    $0x3b6e,%edi
  40257e:	e8 e0 f5 ff ff       	callq  401b63 <__bswap_16>
  402583:	66 89 45 e2          	mov    %ax,-0x1e(%rbp)
  402587:	ba 10 00 00 00       	mov    $0x10,%edx
  40258c:	48 8d 75 e0          	lea    -0x20(%rbp),%rsi
  402590:	89 df                	mov    %ebx,%edi
  402592:	e8 c9 eb ff ff       	callq  401160 <connect@plt>
  402597:	85 c0                	test   %eax,%eax
  402599:	0f 88 e7 00 00 00    	js     402686 <init_driver+0x1a8>
  40259f:	89 df                	mov    %ebx,%edi
  4025a1:	e8 ea ea ff ff       	callq  401090 <close@plt>
  4025a6:	66 41 c7 04 24 4f 4b 	movw   $0x4b4f,(%r12)
  4025ad:	41 c6 44 24 02 00    	movb   $0x0,0x2(%r12)
  4025b3:	b8 00 00 00 00       	mov    $0x0,%eax
  4025b8:	48 83 c4 10          	add    $0x10,%rsp
  4025bc:	5b                   	pop    %rbx
  4025bd:	41 5c                	pop    %r12
  4025bf:	5d                   	pop    %rbp
  4025c0:	c3                   	retq   
  4025c1:	48 b8 45 72 72 6f 72 	movabs $0x43203a726f727245,%rax
  4025c8:	3a 20 43 
  4025cb:	48 ba 6c 69 65 6e 74 	movabs $0x6e7520746e65696c,%rdx
  4025d2:	20 75 6e 
  4025d5:	49 89 04 24          	mov    %rax,(%r12)
  4025d9:	49 89 54 24 08       	mov    %rdx,0x8(%r12)
  4025de:	48 b8 61 62 6c 65 20 	movabs $0x206f7420656c6261,%rax
  4025e5:	74 6f 20 
  4025e8:	48 ba 63 72 65 61 74 	movabs $0x7320657461657263,%rdx
  4025ef:	65 20 73 
  4025f2:	49 89 44 24 10       	mov    %rax,0x10(%r12)
  4025f7:	49 89 54 24 18       	mov    %rdx,0x18(%r12)
  4025fc:	41 c7 44 24 20 6f 63 	movl   $0x656b636f,0x20(%r12)
  402603:	6b 65 
  402605:	66 41 c7 44 24 24 74 	movw   $0x74,0x24(%r12)
  40260c:	00 
  40260d:	b8 ff ff ff ff       	mov    $0xffffffff,%eax
  402612:	eb a4                	jmp    4025b8 <init_driver+0xda>
  402614:	48 b8 45 72 72 6f 72 	movabs $0x44203a726f727245,%rax
  40261b:	3a 20 44 
  40261e:	48 ba 4e 53 20 69 73 	movabs $0x6e7520736920534e,%rdx
  402625:	20 75 6e 
  402628:	49 89 04 24          	mov    %rax,(%r12)
  40262c:	49 89 54 24 08       	mov    %rdx,0x8(%r12)
  402631:	48 b8 61 62 6c 65 20 	movabs $0x206f7420656c6261,%rax
  402638:	74 6f 20 
  40263b:	48 ba 72 65 73 6f 6c 	movabs $0x2065766c6f736572,%rdx
  402642:	76 65 20 
  402645:	49 89 44 24 10       	mov    %rax,0x10(%r12)
  40264a:	49 89 54 24 18       	mov    %rdx,0x18(%r12)
  40264f:	48 b8 73 65 72 76 65 	movabs $0x6120726576726573,%rax
  402656:	72 20 61 
  402659:	49 89 44 24 20       	mov    %rax,0x20(%r12)
  40265e:	41 c7 44 24 28 64 64 	movl   $0x65726464,0x28(%r12)
  402665:	72 65 
  402667:	66 41 c7 44 24 2c 73 	movw   $0x7373,0x2c(%r12)
  40266e:	73 
  40266f:	41 c6 44 24 2e 00    	movb   $0x0,0x2e(%r12)
  402675:	89 df                	mov    %ebx,%edi
  402677:	e8 14 ea ff ff       	callq  401090 <close@plt>
  40267c:	b8 ff ff ff ff       	mov    $0xffffffff,%eax
  402681:	e9 32 ff ff ff       	jmpq   4025b8 <init_driver+0xda>
  402686:	41 b8 cc 34 40 00    	mov    $0x4034cc,%r8d
  40268c:	b9 88 34 40 00       	mov    $0x403488,%ecx
  402691:	48 c7 c2 ff ff ff ff 	mov    $0xffffffffffffffff,%rdx
  402698:	be 01 00 00 00       	mov    $0x1,%esi
  40269d:	4c 89 e7             	mov    %r12,%rdi
  4026a0:	b8 00 00 00 00       	mov    $0x0,%eax
  4026a5:	e8 f6 ea ff ff       	callq  4011a0 <__sprintf_chk@plt>
  4026aa:	89 df                	mov    %ebx,%edi
  4026ac:	e8 df e9 ff ff       	callq  401090 <close@plt>
  4026b1:	b8 ff ff ff ff       	mov    $0xffffffff,%eax
  4026b6:	e9 fd fe ff ff       	jmpq   4025b8 <init_driver+0xda>

00000000004026bb <driver_post>:
  4026bb:	55                   	push   %rbp
  4026bc:	48 89 e5             	mov    %rsp,%rbp
  4026bf:	53                   	push   %rbx
  4026c0:	48 83 ec 08          	sub    $0x8,%rsp
  4026c4:	48 89 cb             	mov    %rcx,%rbx
  4026c7:	85 d2                	test   %edx,%edx
  4026c9:	75 1b                	jne    4026e6 <driver_post+0x2b>
  4026cb:	48 85 ff             	test   %rdi,%rdi
  4026ce:	74 05                	je     4026d5 <driver_post+0x1a>
  4026d0:	80 3f 00             	cmpb   $0x0,(%rdi)
  4026d3:	75 38                	jne    40270d <driver_post+0x52>
  4026d5:	66 c7 03 4f 4b       	movw   $0x4b4f,(%rbx)
  4026da:	c6 43 02 00          	movb   $0x0,0x2(%rbx)
  4026de:	89 d0                	mov    %edx,%eax
  4026e0:	48 8b 5d f8          	mov    -0x8(%rbp),%rbx
  4026e4:	c9                   	leaveq 
  4026e5:	c3                   	retq   
  4026e6:	48 89 f2             	mov    %rsi,%rdx
  4026e9:	be d6 34 40 00       	mov    $0x4034d6,%esi
  4026ee:	bf 01 00 00 00       	mov    $0x1,%edi
  4026f3:	b8 00 00 00 00       	mov    $0x0,%eax
  4026f8:	e8 23 ea ff ff       	callq  401120 <__printf_chk@plt>
  4026fd:	66 c7 03 4f 4b       	movw   $0x4b4f,(%rbx)
  402702:	c6 43 02 00          	movb   $0x0,0x2(%rbx)
  402706:	b8 00 00 00 00       	mov    $0x0,%eax
  40270b:	eb d3                	jmp    4026e0 <driver_post+0x25>
  40270d:	48 83 ec 08          	sub    $0x8,%rsp
  402711:	51                   	push   %rcx
  402712:	49 89 f1             	mov    %rsi,%r9
  402715:	41 b8 ed 34 40 00    	mov    $0x4034ed,%r8d
  40271b:	48 89 f9             	mov    %rdi,%rcx
  40271e:	ba f9 34 40 00       	mov    $0x4034f9,%edx
  402723:	be 6e 3b 00 00       	mov    $0x3b6e,%esi
  402728:	bf cc 34 40 00       	mov    $0x4034cc,%edi
  40272d:	e8 a1 f6 ff ff       	callq  401dd3 <submitr>
  402732:	48 83 c4 10          	add    $0x10,%rsp
  402736:	eb a8                	jmp    4026e0 <driver_post+0x25>
  402738:	0f 1f 84 00 00 00 00 	nopl   0x0(%rax,%rax,1)
  40273f:	00 

0000000000402740 <__libc_csu_init>:
  402740:	f3 0f 1e fa          	endbr64 
  402744:	41 57                	push   %r15
  402746:	4c 8d 3d c3 26 00 00 	lea    0x26c3(%rip),%r15        # 404e10 <__frame_dummy_init_array_entry>
  40274d:	41 56                	push   %r14
  40274f:	49 89 d6             	mov    %rdx,%r14
  402752:	41 55                	push   %r13
  402754:	49 89 f5             	mov    %rsi,%r13
  402757:	41 54                	push   %r12
  402759:	41 89 fc             	mov    %edi,%r12d
  40275c:	55                   	push   %rbp
  40275d:	48 8d 2d b4 26 00 00 	lea    0x26b4(%rip),%rbp        # 404e18 <__do_global_dtors_aux_fini_array_entry>
  402764:	53                   	push   %rbx
  402765:	4c 29 fd             	sub    %r15,%rbp
  402768:	48 83 ec 08          	sub    $0x8,%rsp
  40276c:	e8 8f e8 ff ff       	callq  401000 <_init>
  402771:	48 c1 fd 03          	sar    $0x3,%rbp
  402775:	74 1f                	je     402796 <__libc_csu_init+0x56>
  402777:	31 db                	xor    %ebx,%ebx
  402779:	0f 1f 80 00 00 00 00 	nopl   0x0(%rax)
  402780:	4c 89 f2             	mov    %r14,%rdx
  402783:	4c 89 ee             	mov    %r13,%rsi
  402786:	44 89 e7             	mov    %r12d,%edi
  402789:	41 ff 14 df          	callq  *(%r15,%rbx,8)
  40278d:	48 83 c3 01          	add    $0x1,%rbx
  402791:	48 39 dd             	cmp    %rbx,%rbp
  402794:	75 ea                	jne    402780 <__libc_csu_init+0x40>
  402796:	48 83 c4 08          	add    $0x8,%rsp
  40279a:	5b                   	pop    %rbx
  40279b:	5d                   	pop    %rbp
  40279c:	41 5c                	pop    %r12
  40279e:	41 5d                	pop    %r13
  4027a0:	41 5e                	pop    %r14
  4027a2:	41 5f                	pop    %r15
  4027a4:	c3                   	retq   
  4027a5:	66 66 2e 0f 1f 84 00 	data16 nopw %cs:0x0(%rax,%rax,1)
  4027ac:	00 00 00 00 

00000000004027b0 <__libc_csu_fini>:
  4027b0:	f3 0f 1e fa          	endbr64 
  4027b4:	c3                   	retq   

Disassembly of section .fini:

00000000004027b8 <_fini>:
  4027b8:	f3 0f 1e fa          	endbr64 
  4027bc:	48 83 ec 08          	sub    $0x8,%rsp
  4027c0:	48 83 c4 08          	add    $0x8,%rsp
  4027c4:	c3                   	retq   
